MP2COD 4.04, COFF to COD File Converter
Copyright (c) 2006 Microchip Technology Inc.
Listing File Generated: Tue Jul 03 15:16:33 2007


Address  Value    Disassembly              Source                                                                           File
-------  -------  -----------------------  -------------------------------------------------------------------------------  -----
                                           /* $Id: c018i.c,v 1.3.14.1 2006/01/24 14:50:12 rhinec Exp $ */                   C:\MCC18\src\traditional\startup\c018i.c
                                                                                                                            C:\MCC18\src\traditional\startup\c018i.c
                                           /* Copyright (c)1999 Microchip Technology */                                     C:\MCC18\src\traditional\startup\c018i.c
                                                                                                                            C:\MCC18\src\traditional\startup\c018i.c
                                           /* MPLAB-C18 startup code, including initialized data */                         C:\MCC18\src\traditional\startup\c018i.c
                                                                                                                            C:\MCC18\src\traditional\startup\c018i.c
                                           /* external reference to the user's main routine */                              C:\MCC18\src\traditional\startup\c018i.c
                                           extern void main (void);                                                         C:\MCC18\src\traditional\startup\c018i.c
                                           /* prototype for the startup function */                                         C:\MCC18\src\traditional\startup\c018i.c
                                           void _entry (void);                                                              C:\MCC18\src\traditional\startup\c018i.c
                                           void _startup (void);                                                            C:\MCC18\src\traditional\startup\c018i.c
                                           /* prototype for the initialized data setup */                                   C:\MCC18\src\traditional\startup\c018i.c
                                           void _do_cinit (void);                                                           C:\MCC18\src\traditional\startup\c018i.c
                                                                                                                            C:\MCC18\src\traditional\startup\c018i.c
                                           extern volatile near unsigned long short TBLPTR;                                 C:\MCC18\src\traditional\startup\c018i.c
                                           extern near unsigned FSR0;                                                       C:\MCC18\src\traditional\startup\c018i.c
                                           extern near char __FPFLAGS;                                                      C:\MCC18\src\traditional\startup\c018i.c
                                           #define RND 6                                                                    C:\MCC18\src\traditional\startup\c018i.c
                                                                                                                            C:\MCC18\src\traditional\startup\c018i.c
                                           #pragma code _entry_scn=0x000000                                                 C:\MCC18\src\traditional\startup\c018i.c
                                           void                                                                             C:\MCC18\src\traditional\startup\c018i.c
                                           _entry (void)                                                                    C:\MCC18\src\traditional\startup\c018i.c
                                           {                                                                                C:\MCC18\src\traditional\startup\c018i.c
000000   efe6     GOTO      0x27cc         _asm goto _startup _endasm                                                       C:\MCC18\src\traditional\startup\c018i.c
000002   f013                                                                                                               
                                                                                                                            C:\MCC18\src\traditional\startup\c018i.c
000004   0012     RETURN    0x0            }                                                                                C:\MCC18\src\traditional\startup\c018i.c
                                           #pragma code _startup_scn                                                        C:\MCC18\src\traditional\startup\c018i.c
                                           void                                                                             C:\MCC18\src\traditional\startup\c018i.c
                                           _startup (void)                                                                  C:\MCC18\src\traditional\startup\c018i.c
                                           {                                                                                C:\MCC18\src\traditional\startup\c018i.c
                                             _asm                                                                           C:\MCC18\src\traditional\startup\c018i.c
                                               // Initialize the stack pointer                                              C:\MCC18\src\traditional\startup\c018i.c
0027cc   ee15     LFSR      0x1,0x500          lfsr 1, _stack                                                               C:\MCC18\src\traditional\startup\c018i.c
0027ce   f000                                                                                                               
0027d0   ee25     LFSR      0x2,0x500          lfsr 2, _stack                                                               C:\MCC18\src\traditional\startup\c018i.c
0027d2   f000                                                                                                               
                                                                                                                            C:\MCC18\src\traditional\startup\c018i.c
0027d4   6af8     CLRF      0xf8,0x0           clrf TBLPTRU, 0 // 1st silicon doesn't do this on POR                        C:\MCC18\src\traditional\startup\c018i.c
                                                                                                                            C:\MCC18\src\traditional\startup\c018i.c
0027d6   9c09     BCF       0x9,0x6,0x0        bcf __FPFLAGS,RND,0 // Initialize rounding flag for floating point libs      C:\MCC18\src\traditional\startup\c018i.c
                                                                                                                            C:\MCC18\src\traditional\startup\c018i.c
                                               _endasm                                                                      C:\MCC18\src\traditional\startup\c018i.c
0027d8   ec74     CALL      0x26e8,0x0         _do_cinit ();                                                                C:\MCC18\src\traditional\startup\c018i.c
0027da   f013                                                                                                               
                                                                                                                            C:\MCC18\src\traditional\startup\c018i.c
                                           loop:                                                                            C:\MCC18\src\traditional\startup\c018i.c
                                                                                                                            C:\MCC18\src\traditional\startup\c018i.c
                                             // Call the user's main routine                                                C:\MCC18\src\traditional\startup\c018i.c
0027dc   ecef     CALL      0x19de,0x0       main ();                                                                       C:\MCC18\src\traditional\startup\c018i.c
0027de   f00c                                                                                                               
                                                                                                                            C:\MCC18\src\traditional\startup\c018i.c
0027e0   d7fd     BRA       0x27dc           goto loop;                                                                     C:\MCC18\src\traditional\startup\c018i.c
0027e2   0012     RETURN    0x0            }                               /* end _startup() */                             C:\MCC18\src\traditional\startup\c018i.c
                                                                                                                            C:\MCC18\src\traditional\startup\c018i.c
                                           /* MPLAB-C18 initialized data memory support */                                  C:\MCC18\src\traditional\startup\c018i.c
                                           /* The linker will populate the _cinit table */                                  C:\MCC18\src\traditional\startup\c018i.c
                                           extern far rom struct                                                            C:\MCC18\src\traditional\startup\c018i.c
                                           {                                                                                C:\MCC18\src\traditional\startup\c018i.c
                                             unsigned short num_init;                                                       C:\MCC18\src\traditional\startup\c018i.c
                                             struct _init_entry                                                             C:\MCC18\src\traditional\startup\c018i.c
                                             {                                                                              C:\MCC18\src\traditional\startup\c018i.c
                                               unsigned long from;                                                          C:\MCC18\src\traditional\startup\c018i.c
                                               unsigned long to;                                                            C:\MCC18\src\traditional\startup\c018i.c
                                               unsigned long size;                                                          C:\MCC18\src\traditional\startup\c018i.c
                                             }                                                                              C:\MCC18\src\traditional\startup\c018i.c
                                             entries[];                                                                     C:\MCC18\src\traditional\startup\c018i.c
                                           }                                                                                C:\MCC18\src\traditional\startup\c018i.c
                                           _cinit;                                                                          C:\MCC18\src\traditional\startup\c018i.c
                                                                                                                            C:\MCC18\src\traditional\startup\c018i.c
                                           #pragma code _cinit_scn                                                          C:\MCC18\src\traditional\startup\c018i.c
                                           void                                                                             C:\MCC18\src\traditional\startup\c018i.c
                                           _do_cinit (void)                                                                 C:\MCC18\src\traditional\startup\c018i.c
                                           {                                                                                C:\MCC18\src\traditional\startup\c018i.c
                                             /* we'll make the assumption in the following code that these statics          C:\MCC18\src\traditional\startup\c018i.c
                                              * will be allocated into the same bank.                                       C:\MCC18\src\traditional\startup\c018i.c
                                              */                                                                            C:\MCC18\src\traditional\startup\c018i.c
                                             static short long prom;                                                        C:\MCC18\src\traditional\startup\c018i.c
                                             static unsigned short curr_byte;                                               C:\MCC18\src\traditional\startup\c018i.c
                                             static unsigned short curr_entry;                                              C:\MCC18\src\traditional\startup\c018i.c
                                             static short long data_ptr;                                                    C:\MCC18\src\traditional\startup\c018i.c
                                                                                                                            C:\MCC18\src\traditional\startup\c018i.c
                                             // Initialized data...                                                         C:\MCC18\src\traditional\startup\c018i.c
0026e8   0e2a     MOVLW     0x2a             TBLPTR = (short long)&_cinit;                                                  C:\MCC18\src\traditional\startup\c018i.c
0026ea   6ef6     MOVWF     0xf6,0x0                                                                                        
0026ec   0e00     MOVLW     0x0                                                                                             
0026ee   6ef7     MOVWF     0xf7,0x0                                                                                        
0026f0   0e00     MOVLW     0x0                                                                                             
0026f2   6ef8     MOVWF     0xf8,0x0                                                                                        
                                             _asm                                                                           C:\MCC18\src\traditional\startup\c018i.c
0026f4   0101     MOVLB     0x1                movlb data_ptr                                                               C:\MCC18\src\traditional\startup\c018i.c
0026f6   0009     TBLRDPOSTINC                 tblrdpostinc                                                                 C:\MCC18\src\traditional\startup\c018i.c
0026f8   50f5     MOVF      0xf5,0x0,0x0       movf TABLAT, 0, 0                                                            C:\MCC18\src\traditional\startup\c018i.c
0026fa   6ff6     MOVWF     0xf6,0x1           movwf curr_entry, 1                                                          C:\MCC18\src\traditional\startup\c018i.c
0026fc   0009     TBLRDPOSTINC                 tblrdpostinc                                                                 C:\MCC18\src\traditional\startup\c018i.c
0026fe   50f5     MOVF      0xf5,0x0,0x0       movf TABLAT, 0, 0                                                            C:\MCC18\src\traditional\startup\c018i.c
002700   6ff7     MOVWF     0xf7,0x1           movwf curr_entry+1, 1                                                        C:\MCC18\src\traditional\startup\c018i.c
                                             _endasm                                                                        C:\MCC18\src\traditional\startup\c018i.c
                                               //while (curr_entry)                                                         C:\MCC18\src\traditional\startup\c018i.c
                                               //{                                                                          C:\MCC18\src\traditional\startup\c018i.c
                                               test:                                                                        C:\MCC18\src\traditional\startup\c018i.c
                                               _asm                                                                         C:\MCC18\src\traditional\startup\c018i.c
002702   e103     BNZ       0x270a              bnz 3                                                                       C:\MCC18\src\traditional\startup\c018i.c
002704   67f6     TSTFSZ    0xf6,0x1           tstfsz curr_entry, 1                                                         C:\MCC18\src\traditional\startup\c018i.c
002706   d001     BRA       0x270a             bra 1                                                                        C:\MCC18\src\traditional\startup\c018i.c
                                               _endasm                                                                      C:\MCC18\src\traditional\startup\c018i.c
002708   d03d     BRA       0x2784             goto done;                                                                   C:\MCC18\src\traditional\startup\c018i.c
                                                 /* Count down so we only have to look up the data in _cinit                C:\MCC18\src\traditional\startup\c018i.c
                                                  * once.                                                                   C:\MCC18\src\traditional\startup\c018i.c
                                                  *                                                                         C:\MCC18\src\traditional\startup\c018i.c
                                                  * At this point we know that TBLPTR points to the top of the current      C:\MCC18\src\traditional\startup\c018i.c
                                                  * entry in _cinit, so we can just start reading the from, to, and         C:\MCC18\src\traditional\startup\c018i.c
                                                  * size values.                                                            C:\MCC18\src\traditional\startup\c018i.c
                                                  */                                                                        C:\MCC18\src\traditional\startup\c018i.c
                                                 _asm                                                                       C:\MCC18\src\traditional\startup\c018i.c
                                           	/* read the source address */                                                   C:\MCC18\src\traditional\startup\c018i.c
00270a   0009     TBLRDPOSTINC             	tblrdpostinc                                                                    C:\MCC18\src\traditional\startup\c018i.c
00270c   50f5     MOVF      0xf5,0x0,0x0   	movf TABLAT, 0, 0                                                               C:\MCC18\src\traditional\startup\c018i.c
00270e   6ff1     MOVWF     0xf1,0x1       	movwf prom, 1                                                                   C:\MCC18\src\traditional\startup\c018i.c
002710   0009     TBLRDPOSTINC             	tblrdpostinc                                                                    C:\MCC18\src\traditional\startup\c018i.c
002712   50f5     MOVF      0xf5,0x0,0x0   	movf TABLAT, 0, 0                                                               C:\MCC18\src\traditional\startup\c018i.c
002714   6ff2     MOVWF     0xf2,0x1       	movwf prom+1, 1                                                                 C:\MCC18\src\traditional\startup\c018i.c
002716   0009     TBLRDPOSTINC             	tblrdpostinc                                                                    C:\MCC18\src\traditional\startup\c018i.c
002718   50f5     MOVF      0xf5,0x0,0x0   	movf TABLAT, 0, 0                                                               C:\MCC18\src\traditional\startup\c018i.c
00271a   6ff3     MOVWF     0xf3,0x1       	movwf prom+2, 1                                                                 C:\MCC18\src\traditional\startup\c018i.c
                                           	/* skip a byte since it's stored as a 32bit int */                              C:\MCC18\src\traditional\startup\c018i.c
00271c   0009     TBLRDPOSTINC             	tblrdpostinc                                                                    C:\MCC18\src\traditional\startup\c018i.c
                                           	/* read the destination address directly into FSR0 */                           C:\MCC18\src\traditional\startup\c018i.c
00271e   0009     TBLRDPOSTINC             	tblrdpostinc                                                                    C:\MCC18\src\traditional\startup\c018i.c
002720   50f5     MOVF      0xf5,0x0,0x0   	movf TABLAT, 0, 0                                                               C:\MCC18\src\traditional\startup\c018i.c
002722   6ee9     MOVWF     0xe9,0x0       	movwf FSR0L, 0                                                                  C:\MCC18\src\traditional\startup\c018i.c
002724   0009     TBLRDPOSTINC             	tblrdpostinc                                                                    C:\MCC18\src\traditional\startup\c018i.c
002726   50f5     MOVF      0xf5,0x0,0x0   	movf TABLAT, 0, 0                                                               C:\MCC18\src\traditional\startup\c018i.c
002728   6eea     MOVWF     0xea,0x0       	movwf FSR0H, 0                                                                  C:\MCC18\src\traditional\startup\c018i.c
                                           	/* skip two bytes since it's stored as a 32bit int */                           C:\MCC18\src\traditional\startup\c018i.c
00272a   0009     TBLRDPOSTINC             	tblrdpostinc                                                                    C:\MCC18\src\traditional\startup\c018i.c
00272c   0009     TBLRDPOSTINC             	tblrdpostinc                                                                    C:\MCC18\src\traditional\startup\c018i.c
                                           	/* read the destination address directly into FSR0 */                           C:\MCC18\src\traditional\startup\c018i.c
00272e   0009     TBLRDPOSTINC             	tblrdpostinc                                                                    C:\MCC18\src\traditional\startup\c018i.c
002730   50f5     MOVF      0xf5,0x0,0x0   	movf TABLAT, 0, 0                                                               C:\MCC18\src\traditional\startup\c018i.c
002732   6ff4     MOVWF     0xf4,0x1       	movwf curr_byte, 1                                                              C:\MCC18\src\traditional\startup\c018i.c
002734   0009     TBLRDPOSTINC             	tblrdpostinc                                                                    C:\MCC18\src\traditional\startup\c018i.c
002736   50f5     MOVF      0xf5,0x0,0x0   	movf TABLAT, 0, 0                                                               C:\MCC18\src\traditional\startup\c018i.c
002738   6ff5     MOVWF     0xf5,0x1       	movwf curr_byte+1, 1                                                            C:\MCC18\src\traditional\startup\c018i.c
                                           	/* skip two bytes since it's stored as a 32bit int */                           C:\MCC18\src\traditional\startup\c018i.c
00273a   0009     TBLRDPOSTINC             	tblrdpostinc                                                                    C:\MCC18\src\traditional\startup\c018i.c
00273c   0009     TBLRDPOSTINC             	tblrdpostinc                                                                    C:\MCC18\src\traditional\startup\c018i.c
                                                 _endasm                                                                    C:\MCC18\src\traditional\startup\c018i.c
                                                 //prom = data_ptr->from;                                                   C:\MCC18\src\traditional\startup\c018i.c
                                                 //FSR0 = data_ptr->to;                                                     C:\MCC18\src\traditional\startup\c018i.c
                                                 //curr_byte = (unsigned short) data_ptr->size;                             C:\MCC18\src\traditional\startup\c018i.c
                                                 /* the table pointer now points to the next entry. Save it                 C:\MCC18\src\traditional\startup\c018i.c
                                                  * off since we'll be using the table pointer to do the copying            C:\MCC18\src\traditional\startup\c018i.c
                                                  * for the entry.                                                          C:\MCC18\src\traditional\startup\c018i.c
                                                  */                                                                        C:\MCC18\src\traditional\startup\c018i.c
00273e   cff6     MOVFF     0xff6,0x1f8          data_ptr = TBLPTR;                                                         C:\MCC18\src\traditional\startup\c018i.c
002740   f1f8                                                                                                               
002742   cff7     MOVFF     0xff7,0x1f9                                                                                     
002744   f1f9                                                                                                               
002746   cff8     MOVFF     0xff8,0x1fa                                                                                     
002748   f1fa                                                                                                               
                                                                                                                            C:\MCC18\src\traditional\startup\c018i.c
                                                 /* now assign the source address to the table pointer */                   C:\MCC18\src\traditional\startup\c018i.c
00274a   c1f1     MOVFF     0x1f1,0xff6          TBLPTR = prom;                                                             C:\MCC18\src\traditional\startup\c018i.c
00274c   fff6                                                                                                               
00274e   c1f2     MOVFF     0x1f2,0xff7                                                                                     
002750   fff7                                                                                                               
002752   c1f3     MOVFF     0x1f3,0xff8                                                                                     
002754   fff8                                                                                                               
                                                                                                                            C:\MCC18\src\traditional\startup\c018i.c
                                                 /* do the copy loop */                                                     C:\MCC18\src\traditional\startup\c018i.c
                                                 _asm                                                                       C:\MCC18\src\traditional\startup\c018i.c
                                                   // determine if we have any more bytes to copy                           C:\MCC18\src\traditional\startup\c018i.c
002756   0101     MOVLB     0x1            	movlb curr_byte                                                                 C:\MCC18\src\traditional\startup\c018i.c
002758   53f4     MOVF      0xf4,0x1,0x1   	movf curr_byte, 1, 1                                                            C:\MCC18\src\traditional\startup\c018i.c
                                           copy_loop:                                                                       C:\MCC18\src\traditional\startup\c018i.c
00275a   e102     BNZ       0x2760         	bnz 2 // copy_one_byte                                                          C:\MCC18\src\traditional\startup\c018i.c
00275c   53f5     MOVF      0xf5,0x1,0x1   	movf curr_byte + 1, 1, 1                                                        C:\MCC18\src\traditional\startup\c018i.c
00275e   e007     BZ        0x276e         	bz 7 // done_copying                                                            C:\MCC18\src\traditional\startup\c018i.c
                                                                                                                            C:\MCC18\src\traditional\startup\c018i.c
                                           copy_one_byte:                                                                   C:\MCC18\src\traditional\startup\c018i.c
002760   0009     TBLRDPOSTINC             	tblrdpostinc                                                                    C:\MCC18\src\traditional\startup\c018i.c
002762   50f5     MOVF      0xf5,0x0,0x0   	movf TABLAT, 0, 0                                                               C:\MCC18\src\traditional\startup\c018i.c
002764   6eee     MOVWF     0xee,0x0       	movwf POSTINC0, 0                                                               C:\MCC18\src\traditional\startup\c018i.c
                                                                                                                            C:\MCC18\src\traditional\startup\c018i.c
                                           	// decrement byte counter                                                       C:\MCC18\src\traditional\startup\c018i.c
002766   07f4     DECF      0xf4,0x1,0x1   	decf curr_byte, 1, 1                                                            C:\MCC18\src\traditional\startup\c018i.c
002768   e2f8     BC        0x275a         	bc -8 // copy_loop                                                              C:\MCC18\src\traditional\startup\c018i.c
00276a   07f5     DECF      0xf5,0x1,0x1           decf curr_byte + 1, 1, 1                                                 C:\MCC18\src\traditional\startup\c018i.c
00276c   d7f9     BRA       0x2760         	bra -7 // copy_one_byte                                                         C:\MCC18\src\traditional\startup\c018i.c
                                                                                                                            C:\MCC18\src\traditional\startup\c018i.c
                                           done_copying:                                                                    C:\MCC18\src\traditional\startup\c018i.c
                                                                                                                            C:\MCC18\src\traditional\startup\c018i.c
                                                 _endasm                                                                    C:\MCC18\src\traditional\startup\c018i.c
                                                 /* restore the table pointer for the next entry */                         C:\MCC18\src\traditional\startup\c018i.c
00276e   c1f8     MOVFF     0x1f8,0xff6          TBLPTR = data_ptr;                                                         C:\MCC18\src\traditional\startup\c018i.c
002770   fff6                                                                                                               
002772   c1f9     MOVFF     0x1f9,0xff7                                                                                     
002774   fff7                                                                                                               
002776   c1fa     MOVFF     0x1fa,0xff8                                                                                     
002778   fff8                                                                                                               
                                                 /* next entry... */                                                        C:\MCC18\src\traditional\startup\c018i.c
00277a   0101     MOVLB     0x1                  curr_entry--;                                                              C:\MCC18\src\traditional\startup\c018i.c
00277c   07f6     DECF      0xf6,0x1,0x1                                                                                    
00277e   0e00     MOVLW     0x0                                                                                             
002780   5bf7     SUBWFB    0xf7,0x1,0x1                                                                                    
002782   d7bf     BRA       0x2702               goto test;                                                                 C:\MCC18\src\traditional\startup\c018i.c
                                           done:                                                                            C:\MCC18\src\traditional\startup\c018i.c
                                           ;                                                                                C:\MCC18\src\traditional\startup\c018i.c
002784   0012     RETURN    0x0            }                                                                                C:\MCC18\src\traditional\startup\c018i.c
                                           //************************************************************************       C:\Embedded\Joystick\jController.c
                                           // Programmer: Sebastiano                                                        C:\Embedded\Joystick\jController.c
                                           // Function:                                                                     C:\Embedded\Joystick\jController.c
                                           // Created:                                                                      C:\Embedded\Joystick\jController.c
                                           //************************************************************************       C:\Embedded\Joystick\jController.c
                                                                                                                            C:\Embedded\Joystick\jController.c
                                           #include "jpic_include.h"		/* include correct symbols for this processor */      C:\Embedded\Joystick\jController.c
                                           #include "jprototype.h"                                                          C:\Embedded\Joystick\jController.c
                                           #include "japplication_data.h"                                                   C:\Embedded\Joystick\jController.c
                                           #include "jcan.h"                                                                C:\Embedded\Joystick\jController.c
                                           #include "jProfile_data.h"                                                       C:\Embedded\Joystick\jController.c
                                           #include "jController.h"			// Sebastiano...meti in Controller.h le tue variabile C:\Embedded\Joystick\jController.c
                                                                                                                            C:\Embedded\Joystick\jController.c
                                           /* ------------------------------------------- Globals -------------- */         C:\Embedded\Joystick\jController.c
                                                                                                                            C:\Embedded\Joystick\jController.c
                                                                                                                            C:\Embedded\Joystick\jController.c
                                           //Sebastiano: Please note, every new procedure that is declared must have a a prototype. "See Prototype.h" C:\Embedded\Joystick\jController.c
                                                                                                                            C:\Embedded\Joystick\jController.c
                                           //***************************************************//                          C:\Embedded\Joystick\jController.c
                                           //Brief description of the procedure goes here                                   C:\Embedded\Joystick\jController.c
                                           //***************************************************//                          C:\Embedded\Joystick\jController.c
                                           void Control (void)				                                                          C:\Embedded\Joystick\jController.c
                                           {		                                                                              C:\Embedded\Joystick\jController.c
0027ae   a4f2     BTFSS     0xf2,0x2,0x0   	if (INTCONbits.TMR0IF)							// 1 ms tasks                                      C:\Embedded\Joystick\jController.c
0027b0   d006     BRA       0x27be                                                                                          
                                           	{                                                                               C:\Embedded\Joystick\jController.c
0027b2   0ea0     MOVLW     0xa0           		TMR0L = 0x0 - Timer0tick_ms;				//Reset tmr0                                   C:\Embedded\Joystick\jController.c
0027b4   6ed6     MOVWF     0xd6,0x0                                                                                        
0027b6   94f2     BCF       0xf2,0x2,0x0    		INTCONbits.TMR0IF = 0;						//Sebastiano, gestione temporanea del T0 (per lavorare col mio codice C:\Embedded\Joystick\jController.c
0027b8   0101     MOVLB     0x1            		T0_1ms = TRUE;                                                                 C:\Embedded\Joystick\jController.c
0027ba   0e01     MOVLW     0x1                                                                                             
0027bc   6ff0     MOVWF     0xf0,0x1                                                                                        
                                           	}                                                                               C:\Embedded\Joystick\jController.c
0027be   0012     RETURN    0x0            }                                                                                C:\Embedded\Joystick\jController.c
                                                                                                                            C:\Embedded\Joystick\jController.c
                                           //***************************************************//                          C:\Embedded\Joystick\jController.c
                                           //Brief description of the procedure goes here                                   C:\Embedded\Joystick\jController.c
                                           //***************************************************//                          C:\Embedded\Joystick\jController.c
                                           void TimingControl (void)                                                        C:\Embedded\Joystick\jController.c
                                           {                                                                                C:\Embedded\Joystick\jController.c
                                                                                                                            C:\Embedded\Joystick\jController.c
0027c0   d000     BRA       0x27c2         	return;                                                                         C:\Embedded\Joystick\jController.c
0027c2   0012     RETURN    0x0            }                                                                                C:\Embedded\Joystick\jController.c
                                                                                                                            C:\Embedded\Joystick\jController.c
                                           //***************************************************//                          C:\Embedded\Joystick\jController.c
                                           //Read the actual position of the valve                                          C:\Embedded\Joystick\jController.c
                                           //***************************************************//                          C:\Embedded\Joystick\jController.c
                                           void getActualValue(void)                                                        C:\Embedded\Joystick\jController.c
                                           {                                                                                C:\Embedded\Joystick\jController.c
                                                                                                                            C:\Embedded\Joystick\jController.c
                                                                                                                            C:\Embedded\Joystick\jController.c
0027c4   d000     BRA       0x27c6         	return;                                                                         C:\Embedded\Joystick\jController.c
0027c6   0012     RETURN    0x0            }                                                                                C:\Embedded\Joystick\jController.c
                                                                                                                            C:\Embedded\Joystick\jController.c
                                           //***************************************************//                          C:\Embedded\Joystick\jController.c
                                           //Read the actual position of the valve                                          C:\Embedded\Joystick\jController.c
                                           //***************************************************//                          C:\Embedded\Joystick\jController.c
                                           void INIT_RT(void)                                                               C:\Embedded\Joystick\jController.c
                                           {                                                                                C:\Embedded\Joystick\jController.c
                                                                                                                            C:\Embedded\Joystick\jController.c
                                                                                                                            C:\Embedded\Joystick\jController.c
0027c8   d000     BRA       0x27ca         return;                                                                          C:\Embedded\Joystick\jController.c
0027ca   0012     RETURN    0x0            }                                                                                C:\Embedded\Joystick\jController.c
                                                                                                                            C:\Embedded\Joystick\jdict.c
                                           /*****************************************************************************   C:\Embedded\Joystick\jdict.c
                                            *Software derived from  Microchip CANopen Stack (Dictionary Services)           C:\Embedded\Joystick\jdict.c
                                            *by Gino Isla for Lambda Sistemi, Milano                                        C:\Embedded\Joystick\jdict.c
                                            *                                                                               C:\Embedded\Joystick\jdict.c
                                            *****************************************************************************/  C:\Embedded\Joystick\jdict.c
                                           #include	"japplication_data.h"                                                   C:\Embedded\Joystick\jdict.c
                                           #include	"jcan.h"                                                                C:\Embedded\Joystick\jdict.c
                                           #include	"jprototype.h"                                                          C:\Embedded\Joystick\jdict.c
                                           #include	"jObjDict.DEF"                                                          C:\Embedded\Joystick\jdict.c
                                           #include	"jdict.h"                                                               C:\Embedded\Joystick\jdict.c
                                           #include	"jProfile_data.h"                                                       C:\Embedded\Joystick\jdict.c
                                                                                                                            C:\Embedded\Joystick\jdict.c
                                           extern M_TXB_BUFF TXB_B[MAX_CAN_OUT];                                            C:\Embedded\Joystick\jdict.c
                                           extern M_TXB_BUFF RXB_B[MAX_CAN_IN];                                             C:\Embedded\Joystick\jdict.c
                                                                                                                            C:\Embedded\Joystick\jdict.c
                                           extern unsigned char z_bytes_for_xfer; 			//number of bytes to transfer to/from the external EEPROM page C:\Embedded\Joystick\jdict.c
                                           extern unsigned char z_EEPROM_bank;				//group of bytes (ramp o,1,2,3), each bank is 128 bytes C:\Embedded\Joystick\jdict.c
                                           extern unsigned char z_EEPROM_page;				//page within the bank where write starts C:\Embedded\Joystick\jdict.c
                                           extern unsigned char z_EEPROM_offset;			// offset within the page (for single varaibles) C:\Embedded\Joystick\jdict.c
                                                                                                                            C:\Embedded\Joystick\jdict.c
                                           // This fills some of the the dictionary with data                               C:\Embedded\Joystick\jdict.c
                                           //++++++++++++++++++++++++++++++++++++++++++++                                   C:\Embedded\Joystick\jdict.c
                                           //RW variables initialized to their default values (writeable with SDO)          C:\Embedded\Joystick\jdict.c
                                           extern M_ERROR_REGISTER uCO_DevErrReg;						//(x1001,0)readable by SDO, writeable by the program only C:\Embedded\Joystick\jdict.c
                                           extern M_MULTIPLEXOR multiplexor;                                                C:\Embedded\Joystick\jdict.c
                                           unsigned long uCO_DevManufacturerStatReg;			//(x1002,0)                          C:\Embedded\Joystick\jdict.c
                                                                                                                            C:\Embedded\Joystick\jdict.c
                                           unsigned char uCO_COMM_SYNC_COBID = 0x80;                                        C:\Embedded\Joystick\jdict.c
                                           unsigned int uCO_COMM_NMTE_GuardTime = 0;			//not used                           C:\Embedded\Joystick\jdict.c
                                           unsigned char uCO_COMM_NMTE_LifeTimeFactor = 0; 	//not used                      C:\Embedded\Joystick\jdict.c
                                           unsigned int uCO_COMM_NMTE_HeartBeat = 2000;		//2 seconds                        C:\Embedded\Joystick\jdict.c
                                                                                                                            C:\Embedded\Joystick\jdict.c
                                           rom unsigned char _uSDO1COMMIndx = 3;				//(1200,0: The length of the SDO object C:\Embedded\Joystick\jdict.c
                                           rom unsigned int uCO_COMM_SDO1_CLIENT_COBID = 0x600;//(1200,1: COB_ID client->server C:\Embedded\Joystick\jdict.c
                                           rom unsigned int uCO_COMM_SDO1_SERVER_COBID = 0x580;//(1200,2: COB_ID server->client C:\Embedded\Joystick\jdict.c
                                                                                                                            C:\Embedded\Joystick\jdict.c
                                           //receive PDOs                                                                   C:\Embedded\Joystick\jdict.c
                                           rom unsigned int uCO_COMM_RPDO1_COBID = 0x200;		//(1400,1  pre-defined RPDO1 (+node id) C:\Embedded\Joystick\jdict.c
                                           rom unsigned int uCO_COMM_RPDO2_COBID = 0x300;		//(1401,1  pre-defined RPDO2 (+node id) C:\Embedded\Joystick\jdict.c
                                                                                                                            C:\Embedded\Joystick\jdict.c
                                           //transmit PDOs                                                                  C:\Embedded\Joystick\jdict.c
                                           rom unsigned int uCO_COMM_TPDO1_COBID = 0x180;		//(1800,1  pre-defined TPDO1 (+node id) C:\Embedded\Joystick\jdict.c
                                           rom unsigned int uCO_COMM_TPDO1_Type = .255;		//default xmit type PDO1 = async   C:\Embedded\Joystick\jdict.c
                                           rom unsigned int uCO_COMM_TPDO2_COBID = 0x280;		//(1801,1  pre-defined TPDO2 (+node id) C:\Embedded\Joystick\jdict.c
                                           rom unsigned int uCO_COMM_TPDO2_Type = 255;                                      C:\Embedded\Joystick\jdict.c
                                                                                                                            C:\Embedded\Joystick\jdict.c
                                           unsigned char uLocalRcvBuffer[8];			// local buffer for RPDO1 (gi... something to do with device profile(?) ) C:\Embedded\Joystick\jdict.c
                                           rom struct _DICTIONARY_OBJECT_TEMPLATE *od_entry;                                C:\Embedded\Joystick\jdict.c
                                                                                                                            C:\Embedded\Joystick\jdict.c
                                           //++++++++++++++++++++++++++++++++++++++++++++++                                 C:\Embedded\Joystick\jdict.c
                                           // Static data referenced to by the dictionary                                   C:\Embedded\Joystick\jdict.c
                                           rom unsigned char rMaxIndex1 = 1;                                                C:\Embedded\Joystick\jdict.c
                                           rom unsigned char rMaxIndex4 = 4;                                                C:\Embedded\Joystick\jdict.c
                                           rom unsigned char rMaxIndex2 = 8;                                                C:\Embedded\Joystick\jdict.c
                                           rom unsigned char uDemoTPDO1Len = 2;                                             C:\Embedded\Joystick\jdict.c
                                                                                                                            C:\Embedded\Joystick\jdict.c
                                           rom unsigned char	__dummy[4] = {0,0,0,0};                                        C:\Embedded\Joystick\jdict.c
                                           rom unsigned long uTPDO1Map = 0x60000108;                                        C:\Embedded\Joystick\jdict.c
                                           rom unsigned long uRPDO1Map = 0x62000108; //gi: app dep???                       C:\Embedded\Joystick\jdict.c
                                           rom unsigned long uPDO1Dummy = 0x00000008;                                       C:\Embedded\Joystick\jdict.c
                                                                                                                            C:\Embedded\Joystick\jdict.c
                                           DICT_PARAM	uDict;                                                                C:\Embedded\Joystick\jdict.c
                                                                                                                            C:\Embedded\Joystick\jdict.c
                                           rom unsigned char * _pTmpDBase;                                                  C:\Embedded\Joystick\jdict.c
                                           unsigned char 		_tDBaseLen;                                                      C:\Embedded\Joystick\jdict.c
                                           unsigned char		_uDictTemp[4];                                                    C:\Embedded\Joystick\jdict.c
                                           									                                                                        C:\Embedded\Joystick\jdict.c
                                           /* Dictionary database built into ROM */								                                 C:\Embedded\Joystick\jdict.c
                                           rom DICT_OBJECT_TEMPLATE _db_objects[] = {DICTIONARY_DATA_TYPES};	//comm profile C:\Embedded\Joystick\jdict.c
                                                                                                                            C:\Embedded\Joystick\jdict.c
                                           extern unsigned int Index;                                                       C:\Embedded\Joystick\jdict.c
                                           extern unsigned char SubIndex;                                                   C:\Embedded\Joystick\jdict.c
                                           extern unsigned char SDO_Process;                                                C:\Embedded\Joystick\jdict.c
                                           extern unsigned char SDO_RX_HOLD_DATA[128];                                      C:\Embedded\Joystick\jdict.c
                                           extern unsigned char SDO_RX_INDEX;                                               C:\Embedded\Joystick\jdict.c
                                           extern unsigned char toggle;                                                     C:\Embedded\Joystick\jdict.c
                                           extern unsigned int  downloadbytes;                                              C:\Embedded\Joystick\jdict.c
                                           extern unsigned int Id;                                                          C:\Embedded\Joystick\jdict.c
                                           extern unsigned int z_SDO_timer;		//inster SDO time out                          C:\Embedded\Joystick\jdict.c
                                                                                                                            C:\Embedded\Joystick\jdict.c
                                           unsigned char *q_copy_from_RAM;                                                  C:\Embedded\Joystick\jdict.c
                                           unsigned char *q_copy_to_RAM;                                                    C:\Embedded\Joystick\jdict.c
                                           rom char *q_copy_from_ROM;                                                       C:\Embedded\Joystick\jdict.c
                                           char *q_copy_to;                                                                 C:\Embedded\Joystick\jdict.c
                                           REQ_STAT cc;                                                                     C:\Embedded\Joystick\jdict.c
                                           int sdo_req;                                                                     C:\Embedded\Joystick\jdict.c
                                                                                                                            C:\Embedded\Joystick\jdict.c
                                           //***************************************************                            C:\Embedded\Joystick\jdict.c
                                           // Copy from sdo Telegram to EEPROM memory.                                      C:\Embedded\Joystick\jdict.c
                                           //***************************************************                            C:\Embedded\Joystick\jdict.c
000050   cfd9     MOVFF     0xfd9,0xfe6    unsigned char Download_to_EEPROM (unsigned char * from, int n)                   C:\Embedded\Joystick\jdict.c
000052   ffe6                                                                                                               
000054   cfe1     MOVFF     0xfe1,0xfd9                                                                                     
000056   ffd9                                                                                                               
000058   0e04     MOVLW     0x4                                                                                             
00005a   26e1     ADDWF     0xe1,0x1,0x0                                                                                    
                                           {                                                                                C:\Embedded\Joystick\jdict.c
                                           int i;                                                                           C:\Embedded\Joystick\jdict.c
00005c   0e02     MOVLW     0x2            unsigned char return_code = E_SUCCESS;                                           C:\Embedded\Joystick\jdict.c
00005e   6adb     CLRF      0xdb,0x0                                                                                        
                                           unsigned char to;                                                                C:\Embedded\Joystick\jdict.c
                                                                                                                            C:\Embedded\Joystick\jdict.c
000060   c1be     MOVFF     0x1be,0xff6    	if ((od_entry->ctl) & (EE_BIT))                                                 C:\Embedded\Joystick\jdict.c
000062   fff6                                                                                                               
000064   c1bf     MOVFF     0x1bf,0xff7                                                                                     
000066   fff7                                                                                                               
000068   0e03     MOVLW     0x3                                                                                             
00006a   26f6     ADDWF     0xf6,0x1,0x0                                                                                    
00006c   0e00     MOVLW     0x0                                                                                             
00006e   22f7     ADDWFC    0xf7,0x1,0x0                                                                                    
000070   0008     TBLRD                                                                                                     
000072   50f5     MOVF      0xf5,0x0,0x0                                                                                    
000074   0b08     ANDLW     0x8                                                                                             
000076   e101     BNZ       0x7a                                                                                            
000078   d0bc     BRA       0x1f2                                                                                           
                                           	{                                                                               C:\Embedded\Joystick\jdict.c
                                                                                                                            C:\Embedded\Joystick\jdict.c
00007a   0e0b     MOVLW     0xb            		if ((multiplexor.index == 0x100B) && (multiplexor.sindex == 0))                C:\Embedded\Joystick\jdict.c
00007c   0101     MOVLB     0x1                                                                                             
00007e   1986     XORWF     0x86,0x0,0x1                                                                                    
000080   e102     BNZ       0x86                                                                                            
000082   0e10     MOVLW     0x10                                                                                            
000084   1987     XORWF     0x87,0x0,0x1                                                                                    
000086   e105     BNZ       0x92                                                                                            
000088   5188     MOVF      0x88,0x0,0x1                                                                                    
00008a   e103     BNZ       0x92                                                                                            
                                           		{                                                                              C:\Embedded\Joystick\jdict.c
00008c   0e03     MOVLW     0x3            				to = EEPROM_NODE_ID;                                                         C:\Embedded\Joystick\jdict.c
00008e   6adb     CLRF      0xdb,0x0                                                                                        
                                           		}                                                                              C:\Embedded\Joystick\jdict.c
000090   d07e     BRA       0x18e          		else if ((multiplexor.index == 0x1017) && (multiplexor.sindex == 0))           C:\Embedded\Joystick\jdict.c
000092   0e17     MOVLW     0x17                                                                                            
000094   1986     XORWF     0x86,0x0,0x1                                                                                    
000096   e102     BNZ       0x9c                                                                                            
000098   0e10     MOVLW     0x10                                                                                            
00009a   1987     XORWF     0x87,0x0,0x1                                                                                    
00009c   e108     BNZ       0xae                                                                                            
00009e   5188     MOVF      0x88,0x0,0x1                                                                                    
0000a0   e106     BNZ       0xae                                                                                            
                                           		{                                                                              C:\Embedded\Joystick\jdict.c
0000a2   0e02     MOVLW     0x2            				to = EEPROM_HEART_BEAT;                                                      C:\Embedded\Joystick\jdict.c
0000a4   6ef3     MOVWF     0xf3,0x0                                                                                        
0000a6   0e03     MOVLW     0x3                                                                                             
0000a8   cff3     MOVFF     0xff3,0xfdb                                                                                     
0000aa   ffdb                                                                                                               
                                           		}                                                                              C:\Embedded\Joystick\jdict.c
0000ac   d070     BRA       0x18e          		else if (multiplexor.index == 0x1018)                                          C:\Embedded\Joystick\jdict.c
0000ae   0e18     MOVLW     0x18                                                                                            
0000b0   1986     XORWF     0x86,0x0,0x1                                                                                    
0000b2   e102     BNZ       0xb8                                                                                            
0000b4   0e10     MOVLW     0x10                                                                                            
0000b6   1987     XORWF     0x87,0x0,0x1                                                                                    
0000b8   e124     BNZ       0x102                                                                                           
                                           		{                                                                              C:\Embedded\Joystick\jdict.c
0000ba   5188     MOVF      0x88,0x0,0x1   			switch (multiplexor.sindex)                                                   C:\Embedded\Joystick\jdict.c
0000bc   0a04     XORLW     0x4                                                                                             
0000be   e01a     BZ        0xf4                                                                                            
0000c0   0a07     XORLW     0x7                                                                                             
0000c2   e012     BZ        0xe8                                                                                            
0000c4   0a01     XORLW     0x1                                                                                             
0000c6   e00a     BZ        0xdc                                                                                            
0000c8   0a03     XORLW     0x3                                                                                             
0000ca   e002     BZ        0xd0                                                                                            
                                           			{                                                                             C:\Embedded\Joystick\jdict.c
                                           				case (1):                                                                    C:\Embedded\Joystick\jdict.c
0000d0   0e06     MOVLW     0x6            					to = EEPROM_Vendor_Id;                                                      C:\Embedded\Joystick\jdict.c
0000d2   6ef3     MOVWF     0xf3,0x0                                                                                        
0000d4   0e03     MOVLW     0x3                                                                                             
0000d6   cff3     MOVFF     0xff3,0xfdb                                                                                     
0000d8   ffdb                                                                                                               
0000da   d012     BRA       0x100          					break;                                                                      C:\Embedded\Joystick\jdict.c
                                           				case (2):                                                                    C:\Embedded\Joystick\jdict.c
0000dc   0e0a     MOVLW     0xa            					to = EEPROM_Product_code;                                                   C:\Embedded\Joystick\jdict.c
0000de   6ef3     MOVWF     0xf3,0x0                                                                                        
0000e0   0e03     MOVLW     0x3                                                                                             
0000e2   cff3     MOVFF     0xff3,0xfdb                                                                                     
0000e4   ffdb                                                                                                               
0000e6   d00c     BRA       0x100          					break;                                                                      C:\Embedded\Joystick\jdict.c
                                           				case (3):                                                                    C:\Embedded\Joystick\jdict.c
0000e8   0e0e     MOVLW     0xe            					to = EEPROM_revision_numb;                                                  C:\Embedded\Joystick\jdict.c
0000ea   6ef3     MOVWF     0xf3,0x0                                                                                        
0000ec   0e03     MOVLW     0x3                                                                                             
0000ee   cff3     MOVFF     0xff3,0xfdb                                                                                     
0000f0   ffdb                                                                                                               
0000f2   d006     BRA       0x100          					break;                                                                      C:\Embedded\Joystick\jdict.c
                                           				case (4):                                                                    C:\Embedded\Joystick\jdict.c
0000f4   0e12     MOVLW     0x12           					to = EEPROM_serial_numb;                                                    C:\Embedded\Joystick\jdict.c
0000f6   6ef3     MOVWF     0xf3,0x0                                                                                        
0000f8   0e03     MOVLW     0x3                                                                                             
0000fa   cff3     MOVFF     0xff3,0xfdb                                                                                     
0000fc   ffdb                                                                                                               
0000fe   d000     BRA       0x100          					break;                                                                      C:\Embedded\Joystick\jdict.c
                                           				default:                                                                     C:\Embedded\Joystick\jdict.c
0000cc   0e08     MOVLW     0x8            					return (E_OBJ_NOT_FOUND);	//error                                           C:\Embedded\Joystick\jdict.c
0000ce   d094     BRA       0x1f8                                                                                           
                                           			}//switch                                                                     C:\Embedded\Joystick\jdict.c
                                           		} //if 1018                                                                    C:\Embedded\Joystick\jdict.c
                                                                                                                            C:\Embedded\Joystick\jdict.c
000100   d046     BRA       0x18e          		else if ((multiplexor.index == 0x2000) && (multiplexor.sindex == 0))           C:\Embedded\Joystick\jdict.c
000102   5186     MOVF      0x86,0x0,0x1                                                                                    
000104   e102     BNZ       0x10a                                                                                           
000106   0e20     MOVLW     0x20                                                                                            
000108   1987     XORWF     0x87,0x0,0x1                                                                                    
00010a   e108     BNZ       0x11c                                                                                           
00010c   5188     MOVF      0x88,0x0,0x1                                                                                    
00010e   e106     BNZ       0x11c                                                                                           
                                           		{                                                                              C:\Embedded\Joystick\jdict.c
000110   0e16     MOVLW     0x16           				to = EEPROM_number_rx_nodes;                                                 C:\Embedded\Joystick\jdict.c
000112   6ef3     MOVWF     0xf3,0x0                                                                                        
000114   0e03     MOVLW     0x3                                                                                             
000116   cff3     MOVFF     0xff3,0xfdb                                                                                     
000118   ffdb                                                                                                               
                                           		}                                                                              C:\Embedded\Joystick\jdict.c
00011a   d039     BRA       0x18e          		else if ((multiplexor.index == 0x2000) && (multiplexor.sindex == 1))           C:\Embedded\Joystick\jdict.c
00011c   5186     MOVF      0x86,0x0,0x1                                                                                    
00011e   e102     BNZ       0x124                                                                                           
000120   0e20     MOVLW     0x20                                                                                            
000122   1987     XORWF     0x87,0x0,0x1                                                                                    
000124   e108     BNZ       0x136                                                                                           
000126   0588     DECF      0x88,0x0,0x1                                                                                    
000128   e106     BNZ       0x136                                                                                           
                                           		{                                                                              C:\Embedded\Joystick\jdict.c
00012a   0e18     MOVLW     0x18           				to = EEPROM_POT_RX_ID1;                                                      C:\Embedded\Joystick\jdict.c
00012c   6ef3     MOVWF     0xf3,0x0                                                                                        
00012e   0e03     MOVLW     0x3                                                                                             
000130   cff3     MOVFF     0xff3,0xfdb                                                                                     
000132   ffdb                                                                                                               
                                           		}                                                                              C:\Embedded\Joystick\jdict.c
000134   d02c     BRA       0x18e          		else if ((multiplexor.index == 0x2000) && (multiplexor.sindex == 2))           C:\Embedded\Joystick\jdict.c
000136   5186     MOVF      0x86,0x0,0x1                                                                                    
000138   e102     BNZ       0x13e                                                                                           
00013a   0e20     MOVLW     0x20                                                                                            
00013c   1987     XORWF     0x87,0x0,0x1                                                                                    
00013e   e109     BNZ       0x152                                                                                           
000140   0e02     MOVLW     0x2                                                                                             
000142   5d88     SUBWF     0x88,0x0,0x1                                                                                    
000144   e106     BNZ       0x152                                                                                           
                                           		{                                                                              C:\Embedded\Joystick\jdict.c
000146   0e19     MOVLW     0x19           				to = EEPROM_POT_RX_ID2;                                                      C:\Embedded\Joystick\jdict.c
000148   6ef3     MOVWF     0xf3,0x0                                                                                        
00014a   0e03     MOVLW     0x3                                                                                             
00014c   cff3     MOVFF     0xff3,0xfdb                                                                                     
00014e   ffdb                                                                                                               
                                           		}                                                                              C:\Embedded\Joystick\jdict.c
000150   d01e     BRA       0x18e          		else if ((multiplexor.index == 0x2000) && (multiplexor.sindex == 3))           C:\Embedded\Joystick\jdict.c
000152   5186     MOVF      0x86,0x0,0x1                                                                                    
000154   e102     BNZ       0x15a                                                                                           
000156   0e20     MOVLW     0x20                                                                                            
000158   1987     XORWF     0x87,0x0,0x1                                                                                    
00015a   e109     BNZ       0x16e                                                                                           
00015c   0e03     MOVLW     0x3                                                                                             
00015e   5d88     SUBWF     0x88,0x0,0x1                                                                                    
000160   e106     BNZ       0x16e                                                                                           
                                           		{                                                                              C:\Embedded\Joystick\jdict.c
000162   0e1a     MOVLW     0x1a           				to = EEPROM_POT_RX_ID3;                                                      C:\Embedded\Joystick\jdict.c
000164   6ef3     MOVWF     0xf3,0x0                                                                                        
000166   0e03     MOVLW     0x3                                                                                             
000168   cff3     MOVFF     0xff3,0xfdb                                                                                     
00016a   ffdb                                                                                                               
                                           		}                                                                              C:\Embedded\Joystick\jdict.c
00016c   d010     BRA       0x18e          		else if ((multiplexor.index == 0x2000) && (multiplexor.sindex == 4))           C:\Embedded\Joystick\jdict.c
00016e   5186     MOVF      0x86,0x0,0x1                                                                                    
000170   e102     BNZ       0x176                                                                                           
000172   0e20     MOVLW     0x20                                                                                            
000174   1987     XORWF     0x87,0x0,0x1                                                                                    
000176   e109     BNZ       0x18a                                                                                           
000178   0e04     MOVLW     0x4                                                                                             
00017a   5d88     SUBWF     0x88,0x0,0x1                                                                                    
00017c   e106     BNZ       0x18a                                                                                           
                                           		{                                                                              C:\Embedded\Joystick\jdict.c
00017e   0e1b     MOVLW     0x1b           				to = EEPROM_POT_RX_ID4;                                                      C:\Embedded\Joystick\jdict.c
000180   6ef3     MOVWF     0xf3,0x0                                                                                        
000182   0e03     MOVLW     0x3                                                                                             
000184   cff3     MOVFF     0xff3,0xfdb                                                                                     
000186   ffdb                                                                                                               
                                           		}                                                                              C:\Embedded\Joystick\jdict.c
000188   d002     BRA       0x18e          		else                                                                           C:\Embedded\Joystick\jdict.c
00018a   0e12     MOVLW     0x12           			return (E_PARAM_RANGE);	//this is an inconsistancy: EE_PROM bit set but no entry found C:\Embedded\Joystick\jdict.c
00018c   d035     BRA       0x1f8                                                                                           
                                                                                                                            C:\Embedded\Joystick\jdict.c
00018e   6ade     CLRF      0xde,0x0       		for (i=0 ; i<n ;i++)                                                           C:\Embedded\Joystick\jdict.c
000190   6add     CLRF      0xdd,0x0                                                                                        
000192   cfde     MOVFF     0xfde,0x0                                                                                       
000194   f000                                                                                                               
000196   cfdd     MOVFF     0xfdd,0x1                                                                                       
000198   f001                                                                                                               
00019a   0efb     MOVLW     0xfb                                                                                            
00019c   cfdb     MOVFF     0xfdb,0x2                                                                                       
00019e   f002                                                                                                               
0001a0   0efc     MOVLW     0xfc                                                                                            
0001a2   cfdb     MOVFF     0xfdb,0x3                                                                                       
0001a4   f003                                                                                                               
0001a6   5001     MOVF      0x1,0x0,0x0                                                                                     
0001a8   1803     XORWF     0x3,0x0,0x0                                                                                     
0001aa   aee8     BTFSS     0xe8,0x7,0x0                                                                                    
0001ac   d002     BRA       0x1b2                                                                                           
0001ae   3403     RLCF      0x3,0x0,0x0                                                                                     
0001b0   d004     BRA       0x1ba                                                                                           
0001b2   5002     MOVF      0x2,0x0,0x0                                                                                     
0001b4   5c00     SUBWF     0x0,0x0,0x0                                                                                     
0001b6   5003     MOVF      0x3,0x0,0x0                                                                                     
0001b8   5801     SUBWFB    0x1,0x0,0x0                                                                                     
0001ba   e21b     BC        0x1f2                                                                                           
0001e8   2adf     INCF      0xdf,0x1,0x0                                                                                    
0001ea   0e01     MOVLW     0x1                                                                                             
0001ec   e301     BNC       0x1f0                                                                                           
0001ee   2adb     INCF      0xdb,0x1,0x0                                                                                    
0001f0   d7d0     BRA       0x192                                                                                           
                                           		{                                                                              C:\Embedded\Joystick\jdict.c
0001bc   0efd     MOVLW     0xfd           			WriteEEprom_OnBoard (to,(unsigned char) *from);                               C:\Embedded\Joystick\jdict.c
0001be   cfdb     MOVFF     0xfdb,0xfe9                                                                                     
0001c0   ffe9                                                                                                               
0001c2   0efe     MOVLW     0xfe                                                                                            
0001c4   cfdb     MOVFF     0xfdb,0xfea                                                                                     
0001c6   ffea                                                                                                               
0001c8   50ef     MOVF      0xef,0x0,0x0                                                                                    
0001ca   6ee6     MOVWF     0xe6,0x0                                                                                        
0001cc   0e03     MOVLW     0x3                                                                                             
0001ce   cfdb     MOVFF     0xfdb,0xfe6                                                                                     
0001d0   ffe6                                                                                                               
0001d2   ec1e     CALL      0x1e3c,0x0                                                                                      
0001d4   f00f                                                                                                               
0001d6   52e5     MOVF      0xe5,0x1,0x0                                                                                    
0001d8   52e5     MOVF      0xe5,0x1,0x0                                                                                    
0001da   0efd     MOVLW     0xfd           			from++;                                                                       C:\Embedded\Joystick\jdict.c
0001dc   2adb     INCF      0xdb,0x1,0x0                                                                                    
0001de   0efe     MOVLW     0xfe                                                                                            
0001e0   e301     BNC       0x1e4                                                                                           
0001e2   2adb     INCF      0xdb,0x1,0x0                                                                                    
0001e4   0e03     MOVLW     0x3            			to++;                                                                         C:\Embedded\Joystick\jdict.c
0001e6   2adb     INCF      0xdb,0x1,0x0                                                                                    
                                           		}                                                                              C:\Embedded\Joystick\jdict.c
                                           					                                                                            C:\Embedded\Joystick\jdict.c
                                           	}	//if EE_BIT                                                                   C:\Embedded\Joystick\jdict.c
                                                                                                                            C:\Embedded\Joystick\jdict.c
0001f2   0e02     MOVLW     0x2            	return (return_code);                                                           C:\Embedded\Joystick\jdict.c
0001f4   50db     MOVF      0xdb,0x0,0x0                                                                                    
0001f6   d000     BRA       0x1f8                                                                                           
0001f8   6e00     MOVWF     0x0,0x0        }                                                                                C:\Embedded\Joystick\jdict.c
0001fa   0e04     MOVLW     0x4                                                                                             
0001fc   5ce1     SUBWF     0xe1,0x0,0x0                                                                                    
0001fe   e202     BC        0x204                                                                                           
000200   6ae1     CLRF      0xe1,0x0                                                                                        
000202   52e5     MOVF      0xe5,0x1,0x0                                                                                    
000204   6ee1     MOVWF     0xe1,0x0                                                                                        
000206   5000     MOVF      0x0,0x0,0x0                                                                                     
000208   52e5     MOVF      0xe5,0x1,0x0                                                                                    
00020a   cfe7     MOVFF     0xfe7,0xfd9                                                                                     
00020c   ffd9                                                                                                               
00020e   0012     RETURN    0x0                                                                                             
                                                                                                                            C:\Embedded\Joystick\jdict.c
                                           //***************************************************                            C:\Embedded\Joystick\jdict.c
                                           // Copy from sdo Telegram to RW memory.                                          C:\Embedded\Joystick\jdict.c
                                           //***************************************************                            C:\Embedded\Joystick\jdict.c
000210   cfd9     MOVFF     0xfd9,0xfe6    void Copy_RAM_to_RAM (char * from, char * to, int n)                             C:\Embedded\Joystick\jdict.c
000212   ffe6                                                                                                               
000214   cfe1     MOVFF     0xfe1,0xfd9                                                                                     
000216   ffd9                                                                                                               
000218   0e03     MOVLW     0x3                                                                                             
00021a   26e1     ADDWF     0xe1,0x1,0x0                                                                                    
                                           {                                                                                C:\Embedded\Joystick\jdict.c
                                           int i;                                                                           C:\Embedded\Joystick\jdict.c
                                           char a;                                                                          C:\Embedded\Joystick\jdict.c
                                                                                                                            C:\Embedded\Joystick\jdict.c
00021c   6ade     CLRF      0xde,0x0       	for (i=0 ; i<n ;i++)                                                            C:\Embedded\Joystick\jdict.c
00021e   6add     CLRF      0xdd,0x0                                                                                        
000220   cfde     MOVFF     0xfde,0x0                                                                                       
000222   f000                                                                                                               
000224   cfdd     MOVFF     0xfdd,0x1                                                                                       
000226   f001                                                                                                               
000228   0ef9     MOVLW     0xf9                                                                                            
00022a   cfdb     MOVFF     0xfdb,0x2                                                                                       
00022c   f002                                                                                                               
00022e   0efa     MOVLW     0xfa                                                                                            
000230   cfdb     MOVFF     0xfdb,0x3                                                                                       
000232   f003                                                                                                               
000234   5001     MOVF      0x1,0x0,0x0                                                                                     
000236   1803     XORWF     0x3,0x0,0x0                                                                                     
000238   aee8     BTFSS     0xe8,0x7,0x0                                                                                    
00023a   d002     BRA       0x240                                                                                           
00023c   3403     RLCF      0x3,0x0,0x0                                                                                     
00023e   d004     BRA       0x248                                                                                           
000240   5002     MOVF      0x2,0x0,0x0                                                                                     
000242   5c00     SUBWF     0x0,0x0,0x0                                                                                     
000244   5003     MOVF      0x3,0x0,0x0                                                                                     
000246   5801     SUBWFB    0x1,0x0,0x0                                                                                     
000248   e220     BC        0x28a                                                                                           
000280   2adf     INCF      0xdf,0x1,0x0                                                                                    
000282   0e01     MOVLW     0x1                                                                                             
000284   e301     BNC       0x288                                                                                           
000286   2adb     INCF      0xdb,0x1,0x0                                                                                    
000288   d7cb     BRA       0x220                                                                                           
                                           	{                                                                               C:\Embedded\Joystick\jdict.c
00024a   0efd     MOVLW     0xfd           		*to = *from;                                                                   C:\Embedded\Joystick\jdict.c
00024c   cfdb     MOVFF     0xfdb,0xfe9                                                                                     
00024e   ffe9                                                                                                               
000250   0efe     MOVLW     0xfe                                                                                            
000252   cfdb     MOVFF     0xfdb,0xfea                                                                                     
000254   ffea                                                                                                               
000256   50ef     MOVF      0xef,0x0,0x0                                                                                    
000258   6ee6     MOVWF     0xe6,0x0                                                                                        
00025a   0efb     MOVLW     0xfb                                                                                            
00025c   cfdb     MOVFF     0xfdb,0xfe9                                                                                     
00025e   ffe9                                                                                                               
000260   0efc     MOVLW     0xfc                                                                                            
000262   cfdb     MOVFF     0xfdb,0xfea                                                                                     
000264   ffea                                                                                                               
000266   52e5     MOVF      0xe5,0x1,0x0                                                                                    
000268   50e7     MOVF      0xe7,0x0,0x0                                                                                    
00026a   6eef     MOVWF     0xef,0x0                                                                                        
00026c   0efd     MOVLW     0xfd           		from++;                                                                        C:\Embedded\Joystick\jdict.c
00026e   2adb     INCF      0xdb,0x1,0x0                                                                                    
000270   0efe     MOVLW     0xfe                                                                                            
000272   e301     BNC       0x276                                                                                           
000274   2adb     INCF      0xdb,0x1,0x0                                                                                    
000276   0efb     MOVLW     0xfb           		to++;                                                                          C:\Embedded\Joystick\jdict.c
000278   2adb     INCF      0xdb,0x1,0x0                                                                                    
00027a   0efc     MOVLW     0xfc                                                                                            
00027c   e301     BNC       0x280                                                                                           
00027e   2adb     INCF      0xdb,0x1,0x0                                                                                    
                                           	}                                                                               C:\Embedded\Joystick\jdict.c
00028a   0e03     MOVLW     0x3            }                                                                                C:\Embedded\Joystick\jdict.c
00028c   5ce1     SUBWF     0xe1,0x0,0x0                                                                                    
00028e   e202     BC        0x294                                                                                           
000290   6ae1     CLRF      0xe1,0x0                                                                                        
000292   52e5     MOVF      0xe5,0x1,0x0                                                                                    
000294   6ee1     MOVWF     0xe1,0x0                                                                                        
000296   52e5     MOVF      0xe5,0x1,0x0                                                                                    
000298   cfe7     MOVFF     0xfe7,0xfd9                                                                                     
00029a   ffd9                                                                                                               
00029c   0012     RETURN    0x0                                                                                             
                                                                                                                            C:\Embedded\Joystick\jdict.c
                                           //***************************************************                            C:\Embedded\Joystick\jdict.c
                                           // Copy from sdo Telegram to RW memory.                                          C:\Embedded\Joystick\jdict.c
                                           //***************************************************                            C:\Embedded\Joystick\jdict.c
00029e   cfd9     MOVFF     0xfd9,0xfe6    void Download_to_RAM (char * from, char * to, int n)                             C:\Embedded\Joystick\jdict.c
0002a0   ffe6                                                                                                               
0002a2   cfe1     MOVFF     0xfe1,0xfd9                                                                                     
0002a4   ffd9                                                                                                               
0002a6   0e03     MOVLW     0x3                                                                                             
0002a8   26e1     ADDWF     0xe1,0x1,0x0                                                                                    
                                           {                                                                                C:\Embedded\Joystick\jdict.c
                                           int i;                                                                           C:\Embedded\Joystick\jdict.c
                                           char a;                                                                          C:\Embedded\Joystick\jdict.c
                                                                                                                            C:\Embedded\Joystick\jdict.c
0002aa   6ade     CLRF      0xde,0x0       	for (i=0 ; i<n ;i++)                                                            C:\Embedded\Joystick\jdict.c
0002ac   6add     CLRF      0xdd,0x0                                                                                        
0002ae   cfde     MOVFF     0xfde,0x0                                                                                       
0002b0   f000                                                                                                               
0002b2   cfdd     MOVFF     0xfdd,0x1                                                                                       
0002b4   f001                                                                                                               
0002b6   0ef9     MOVLW     0xf9                                                                                            
0002b8   cfdb     MOVFF     0xfdb,0x2                                                                                       
0002ba   f002                                                                                                               
0002bc   0efa     MOVLW     0xfa                                                                                            
0002be   cfdb     MOVFF     0xfdb,0x3                                                                                       
0002c0   f003                                                                                                               
0002c2   5001     MOVF      0x1,0x0,0x0                                                                                     
0002c4   1803     XORWF     0x3,0x0,0x0                                                                                     
0002c6   aee8     BTFSS     0xe8,0x7,0x0                                                                                    
0002c8   d002     BRA       0x2ce                                                                                           
0002ca   3403     RLCF      0x3,0x0,0x0                                                                                     
0002cc   d004     BRA       0x2d6                                                                                           
0002ce   5002     MOVF      0x2,0x0,0x0                                                                                     
0002d0   5c00     SUBWF     0x0,0x0,0x0                                                                                     
0002d2   5003     MOVF      0x3,0x0,0x0                                                                                     
0002d4   5801     SUBWFB    0x1,0x0,0x0                                                                                     
0002d6   e220     BC        0x318                                                                                           
00030e   2adf     INCF      0xdf,0x1,0x0                                                                                    
000310   0e01     MOVLW     0x1                                                                                             
000312   e301     BNC       0x316                                                                                           
000314   2adb     INCF      0xdb,0x1,0x0                                                                                    
000316   d7cb     BRA       0x2ae                                                                                           
                                           	{                                                                               C:\Embedded\Joystick\jdict.c
0002d8   0efd     MOVLW     0xfd           		*to = *from;                                                                   C:\Embedded\Joystick\jdict.c
0002da   cfdb     MOVFF     0xfdb,0xfe9                                                                                     
0002dc   ffe9                                                                                                               
0002de   0efe     MOVLW     0xfe                                                                                            
0002e0   cfdb     MOVFF     0xfdb,0xfea                                                                                     
0002e2   ffea                                                                                                               
0002e4   50ef     MOVF      0xef,0x0,0x0                                                                                    
0002e6   6ee6     MOVWF     0xe6,0x0                                                                                        
0002e8   0efb     MOVLW     0xfb                                                                                            
0002ea   cfdb     MOVFF     0xfdb,0xfe9                                                                                     
0002ec   ffe9                                                                                                               
0002ee   0efc     MOVLW     0xfc                                                                                            
0002f0   cfdb     MOVFF     0xfdb,0xfea                                                                                     
0002f2   ffea                                                                                                               
0002f4   52e5     MOVF      0xe5,0x1,0x0                                                                                    
0002f6   50e7     MOVF      0xe7,0x0,0x0                                                                                    
0002f8   6eef     MOVWF     0xef,0x0                                                                                        
0002fa   0efd     MOVLW     0xfd           		from--;                                                                        C:\Embedded\Joystick\jdict.c
0002fc   06db     DECF      0xdb,0x1,0x0                                                                                    
0002fe   0efe     MOVLW     0xfe                                                                                            
000300   e201     BC        0x304                                                                                           
000302   06db     DECF      0xdb,0x1,0x0                                                                                    
000304   0efb     MOVLW     0xfb           		to++;                                                                          C:\Embedded\Joystick\jdict.c
000306   2adb     INCF      0xdb,0x1,0x0                                                                                    
000308   0efc     MOVLW     0xfc                                                                                            
00030a   e301     BNC       0x30e                                                                                           
00030c   2adb     INCF      0xdb,0x1,0x0                                                                                    
                                           	}                                                                               C:\Embedded\Joystick\jdict.c
000318   0e03     MOVLW     0x3            }                                                                                C:\Embedded\Joystick\jdict.c
00031a   5ce1     SUBWF     0xe1,0x0,0x0                                                                                    
00031c   e202     BC        0x322                                                                                           
00031e   6ae1     CLRF      0xe1,0x0                                                                                        
000320   52e5     MOVF      0xe5,0x1,0x0                                                                                    
000322   6ee1     MOVWF     0xe1,0x0                                                                                        
000324   52e5     MOVF      0xe5,0x1,0x0                                                                                    
000326   cfe7     MOVFF     0xfe7,0xfd9                                                                                     
000328   ffd9                                                                                                               
00032a   0012     RETURN    0x0                                                                                             
                                                                                                                            C:\Embedded\Joystick\jdict.c
                                           //***************************************************                            C:\Embedded\Joystick\jdict.c
                                           // Copy from RAM to sdo Telegram backwards                                       C:\Embedded\Joystick\jdict.c
                                           //***************************************************                            C:\Embedded\Joystick\jdict.c
00032c   cfd9     MOVFF     0xfd9,0xfe6    void Upload_from_RAM (char * from, char * to, int n)                             C:\Embedded\Joystick\jdict.c
00032e   ffe6                                                                                                               
000330   cfe1     MOVFF     0xfe1,0xfd9                                                                                     
000332   ffd9                                                                                                               
000334   0e03     MOVLW     0x3                                                                                             
000336   26e1     ADDWF     0xe1,0x1,0x0                                                                                    
                                           {                                                                                C:\Embedded\Joystick\jdict.c
                                           int i;                                                                           C:\Embedded\Joystick\jdict.c
                                           char a;                                                                          C:\Embedded\Joystick\jdict.c
                                                                                                                            C:\Embedded\Joystick\jdict.c
000338   6ade     CLRF      0xde,0x0       	for (i=0 ; i<n ;i++)                                                            C:\Embedded\Joystick\jdict.c
00033a   6add     CLRF      0xdd,0x0                                                                                        
00033c   cfde     MOVFF     0xfde,0x0                                                                                       
00033e   f000                                                                                                               
000340   cfdd     MOVFF     0xfdd,0x1                                                                                       
000342   f001                                                                                                               
000344   0ef9     MOVLW     0xf9                                                                                            
000346   cfdb     MOVFF     0xfdb,0x2                                                                                       
000348   f002                                                                                                               
00034a   0efa     MOVLW     0xfa                                                                                            
00034c   cfdb     MOVFF     0xfdb,0x3                                                                                       
00034e   f003                                                                                                               
000350   5001     MOVF      0x1,0x0,0x0                                                                                     
000352   1803     XORWF     0x3,0x0,0x0                                                                                     
000354   aee8     BTFSS     0xe8,0x7,0x0                                                                                    
000356   d002     BRA       0x35c                                                                                           
000358   3403     RLCF      0x3,0x0,0x0                                                                                     
00035a   d004     BRA       0x364                                                                                           
00035c   5002     MOVF      0x2,0x0,0x0                                                                                     
00035e   5c00     SUBWF     0x0,0x0,0x0                                                                                     
000360   5003     MOVF      0x3,0x0,0x0                                                                                     
000362   5801     SUBWFB    0x1,0x0,0x0                                                                                     
000364   e220     BC        0x3a6                                                                                           
00039c   2adf     INCF      0xdf,0x1,0x0                                                                                    
00039e   0e01     MOVLW     0x1                                                                                             
0003a0   e301     BNC       0x3a4                                                                                           
0003a2   2adb     INCF      0xdb,0x1,0x0                                                                                    
0003a4   d7cb     BRA       0x33c                                                                                           
                                           	{                                                                               C:\Embedded\Joystick\jdict.c
000366   0efd     MOVLW     0xfd           		*to = *from;                                                                   C:\Embedded\Joystick\jdict.c
000368   cfdb     MOVFF     0xfdb,0xfe9                                                                                     
00036a   ffe9                                                                                                               
00036c   0efe     MOVLW     0xfe                                                                                            
00036e   cfdb     MOVFF     0xfdb,0xfea                                                                                     
000370   ffea                                                                                                               
000372   50ef     MOVF      0xef,0x0,0x0                                                                                    
000374   6ee6     MOVWF     0xe6,0x0                                                                                        
000376   0efb     MOVLW     0xfb                                                                                            
000378   cfdb     MOVFF     0xfdb,0xfe9                                                                                     
00037a   ffe9                                                                                                               
00037c   0efc     MOVLW     0xfc                                                                                            
00037e   cfdb     MOVFF     0xfdb,0xfea                                                                                     
000380   ffea                                                                                                               
000382   52e5     MOVF      0xe5,0x1,0x0                                                                                    
000384   50e7     MOVF      0xe7,0x0,0x0                                                                                    
000386   6eef     MOVWF     0xef,0x0                                                                                        
000388   0efd     MOVLW     0xfd           		from++;                                                                        C:\Embedded\Joystick\jdict.c
00038a   2adb     INCF      0xdb,0x1,0x0                                                                                    
00038c   0efe     MOVLW     0xfe                                                                                            
00038e   e301     BNC       0x392                                                                                           
000390   2adb     INCF      0xdb,0x1,0x0                                                                                    
000392   0efb     MOVLW     0xfb           		to--;			//buffer fills backwards                                               C:\Embedded\Joystick\jdict.c
000394   06db     DECF      0xdb,0x1,0x0                                                                                    
000396   0efc     MOVLW     0xfc                                                                                            
000398   e201     BC        0x39c                                                                                           
00039a   06db     DECF      0xdb,0x1,0x0                                                                                    
                                           	}                                                                               C:\Embedded\Joystick\jdict.c
0003a6   0e03     MOVLW     0x3            }                                                                                C:\Embedded\Joystick\jdict.c
0003a8   5ce1     SUBWF     0xe1,0x0,0x0                                                                                    
0003aa   e202     BC        0x3b0                                                                                           
0003ac   6ae1     CLRF      0xe1,0x0                                                                                        
0003ae   52e5     MOVF      0xe5,0x1,0x0                                                                                    
0003b0   6ee1     MOVWF     0xe1,0x0                                                                                        
0003b2   52e5     MOVF      0xe5,0x1,0x0                                                                                    
0003b4   cfe7     MOVFF     0xfe7,0xfd9                                                                                     
0003b6   ffd9                                                                                                               
0003b8   0012     RETURN    0x0                                                                                             
                                           //***************************************************                            C:\Embedded\Joystick\jdict.c
                                           // Copy RO objects (in code segment) to the sdo buffer backwards                 C:\Embedded\Joystick\jdict.c
                                           //***************************************************                            C:\Embedded\Joystick\jdict.c
0003ba   cfd9     MOVFF     0xfd9,0xfe6    void Upload_from_ROM (rom unsigned char * from, char * to, int n)                C:\Embedded\Joystick\jdict.c
0003bc   ffe6                                                                                                               
0003be   cfe1     MOVFF     0xfe1,0xfd9                                                                                     
0003c0   ffd9                                                                                                               
0003c2   0e02     MOVLW     0x2                                                                                             
0003c4   26e1     ADDWF     0xe1,0x1,0x0                                                                                    
                                           {                                                                                C:\Embedded\Joystick\jdict.c
                                           int i;                                                                           C:\Embedded\Joystick\jdict.c
                                                                                                                            C:\Embedded\Joystick\jdict.c
0003c6   6ade     CLRF      0xde,0x0       	for (i=0 ; i<n ;i++)                                                            C:\Embedded\Joystick\jdict.c
0003c8   6add     CLRF      0xdd,0x0                                                                                        
0003ca   cfde     MOVFF     0xfde,0x0                                                                                       
0003cc   f000                                                                                                               
0003ce   cfdd     MOVFF     0xfdd,0x1                                                                                       
0003d0   f001                                                                                                               
0003d2   0ef9     MOVLW     0xf9                                                                                            
0003d4   cfdb     MOVFF     0xfdb,0x2                                                                                       
0003d6   f002                                                                                                               
0003d8   0efa     MOVLW     0xfa                                                                                            
0003da   cfdb     MOVFF     0xfdb,0x3                                                                                       
0003dc   f003                                                                                                               
0003de   5001     MOVF      0x1,0x0,0x0                                                                                     
0003e0   1803     XORWF     0x3,0x0,0x0                                                                                     
0003e2   aee8     BTFSS     0xe8,0x7,0x0                                                                                    
0003e4   d002     BRA       0x3ea                                                                                           
0003e6   3403     RLCF      0x3,0x0,0x0                                                                                     
0003e8   d004     BRA       0x3f2                                                                                           
0003ea   5002     MOVF      0x2,0x0,0x0                                                                                     
0003ec   5c00     SUBWF     0x0,0x0,0x0                                                                                     
0003ee   5003     MOVF      0x3,0x0,0x0                                                                                     
0003f0   5801     SUBWFB    0x1,0x0,0x0                                                                                     
0003f2   e221     BC        0x436                                                                                           
00042c   2adf     INCF      0xdf,0x1,0x0                                                                                    
00042e   0e01     MOVLW     0x1                                                                                             
000430   e301     BNC       0x434                                                                                           
000432   2adb     INCF      0xdb,0x1,0x0                                                                                    
000434   d7ca     BRA       0x3ca                                                                                           
                                           	{                                                                               C:\Embedded\Joystick\jdict.c
0003f4   0efd     MOVLW     0xfd           		*to = *from;	//only way to copy mem to mem with pointer                        C:\Embedded\Joystick\jdict.c
0003f6   cfdb     MOVFF     0xfdb,0xff6                                                                                     
0003f8   fff6                                                                                                               
0003fa   0efe     MOVLW     0xfe                                                                                            
0003fc   cfdb     MOVFF     0xfdb,0xff7                                                                                     
0003fe   fff7                                                                                                               
000400   0008     TBLRD                                                                                                     
000402   50f5     MOVF      0xf5,0x0,0x0                                                                                    
000404   6ee6     MOVWF     0xe6,0x0                                                                                        
000406   0efb     MOVLW     0xfb                                                                                            
000408   cfdb     MOVFF     0xfdb,0xfe9                                                                                     
00040a   ffe9                                                                                                               
00040c   0efc     MOVLW     0xfc                                                                                            
00040e   cfdb     MOVFF     0xfdb,0xfea                                                                                     
000410   ffea                                                                                                               
000412   52e5     MOVF      0xe5,0x1,0x0                                                                                    
000414   50e7     MOVF      0xe7,0x0,0x0                                                                                    
000416   6eef     MOVWF     0xef,0x0                                                                                        
000418   0efd     MOVLW     0xfd           		from++;                                                                        C:\Embedded\Joystick\jdict.c
00041a   2adb     INCF      0xdb,0x1,0x0                                                                                    
00041c   0efe     MOVLW     0xfe                                                                                            
00041e   e301     BNC       0x422                                                                                           
000420   2adb     INCF      0xdb,0x1,0x0                                                                                    
000422   0efb     MOVLW     0xfb           		to--;			//buffer fills backwards                                               C:\Embedded\Joystick\jdict.c
000424   06db     DECF      0xdb,0x1,0x0                                                                                    
000426   0efc     MOVLW     0xfc                                                                                            
000428   e201     BC        0x42c                                                                                           
00042a   06db     DECF      0xdb,0x1,0x0                                                                                    
                                           	}                                                                               C:\Embedded\Joystick\jdict.c
000436   0e02     MOVLW     0x2            }                                                                                C:\Embedded\Joystick\jdict.c
000438   5ce1     SUBWF     0xe1,0x0,0x0                                                                                    
00043a   e202     BC        0x440                                                                                           
00043c   6ae1     CLRF      0xe1,0x0                                                                                        
00043e   52e5     MOVF      0xe5,0x1,0x0                                                                                    
000440   6ee1     MOVWF     0xe1,0x0                                                                                        
000442   52e5     MOVF      0xe5,0x1,0x0                                                                                    
000444   cfe7     MOVFF     0xfe7,0xfd9                                                                                     
000446   ffd9                                                                                                               
000448   0012     RETURN    0x0                                                                                             
                                           //******************************************************//                       C:\Embedded\Joystick\jdict.c
                                           //Access to OD search  		                    		//                                C:\Embedded\Joystick\jdict.c
                                           //Analyze message										//                                                    C:\Embedded\Joystick\jdict.c
                                           //Save/retrieve data for download/upload				//                                   C:\Embedded\Joystick\jdict.c
                                           //Reply and comply with SDO protocol					//                                      C:\Embedded\Joystick\jdict.c
                                           //******************************************************//                       C:\Embedded\Joystick\jdict.c
00044a   cfd9     MOVFF     0xfd9,0xfe6    void treat_SDO (M_TXB_BUFF sdobuf)                                               C:\Embedded\Joystick\jdict.c
00044c   ffe6                                                                                                               
00044e   cfe1     MOVFF     0xfe1,0xfd9                                                                                     
000450   ffd9                                                                                                               
000452   0e0d     MOVLW     0xd                                                                                             
000454   26e1     ADDWF     0xe1,0x1,0x0                                                                                    
                                           {                                                                                C:\Embedded\Joystick\jdict.c
000456   6adf     CLRF      0xdf,0x0       unsigned char _null[] = {0,0,0,0,0,0,0,0};                                       C:\Embedded\Joystick\jdict.c
000458   0e01     MOVLW     0x1                                                                                             
00045a   6adb     CLRF      0xdb,0x0                                                                                        
00045c   0e02     MOVLW     0x2                                                                                             
00045e   6adb     CLRF      0xdb,0x0                                                                                        
000460   0e03     MOVLW     0x3                                                                                             
000462   6adb     CLRF      0xdb,0x0                                                                                        
000464   0e04     MOVLW     0x4                                                                                             
000466   6adb     CLRF      0xdb,0x0                                                                                        
000468   0e05     MOVLW     0x5                                                                                             
00046a   6adb     CLRF      0xdb,0x0                                                                                        
00046c   0e06     MOVLW     0x6                                                                                             
00046e   6adb     CLRF      0xdb,0x0                                                                                        
000470   0e07     MOVLW     0x7                                                                                             
000472   6adb     CLRF      0xdb,0x0                                                                                        
                                           unsigned char numchars, lastseg;                                                 C:\Embedded\Joystick\jdict.c
                                           char return_code;                                                                C:\Embedded\Joystick\jdict.c
                                           unsigned char i;                                                                 C:\Embedded\Joystick\jdict.c
                                           unsigned char a;                                                                 C:\Embedded\Joystick\jdict.c
                                                                                                                            C:\Embedded\Joystick\jdict.c
000474   50d9     MOVF      0xd9,0x0,0x0   	switch (sdobuf.COMMAND.ANONYMOUS.cs)                                            C:\Embedded\Joystick\jdict.c
000476   0ffa     ADDLW     0xfa                                                                                            
000478   6ee9     MOVWF     0xe9,0x0                                                                                        
00047a   0eff     MOVLW     0xff                                                                                            
00047c   20da     ADDWFC    0xda,0x0,0x0                                                                                    
00047e   6eea     MOVWF     0xea,0x0                                                                                        
000480   50ef     MOVF      0xef,0x0,0x0                                                                                    
000482   0be0     ANDLW     0xe0                                                                                            
000484   42e8     RRNCF     0xe8,0x1,0x0                                                                                    
000486   42e8     RRNCF     0xe8,0x1,0x0                                                                                    
000488   42e8     RRNCF     0xe8,0x1,0x0                                                                                    
00048a   42e8     RRNCF     0xe8,0x1,0x0                                                                                    
00048c   42e8     RRNCF     0xe8,0x1,0x0                                                                                    
00048e   0a04     XORLW     0x4                                                                                             
000490   e102     BNZ       0x496                                                                                           
000492   effb     GOTO      0xdf6                                                                                           
000494   f006                                                                                                               
000496   0a07     XORLW     0x7                                                                                             
000498   e101     BNZ       0x49c                                                                                           
00049a   d3b9     BRA       0xc0e                                                                                           
00049c   0a01     XORLW     0x1                                                                                             
00049e   e101     BNZ       0x4a2                                                                                           
0004a0   d2a0     BRA       0x9e2                                                                                           
0004a2   0a02     XORLW     0x2                                                                                             
0004a4   e101     BNZ       0x4a8                                                                                           
0004a6   d187     BRA       0x7b6                                                                                           
0004a8   0a01     XORLW     0x1                                                                                             
0004aa   e002     BZ        0x4b0                                                                                           
0004ac   effe     GOTO      0xdfc                                                                                           
0004ae   f006                                                                                                               
                                           	{                                                                               C:\Embedded\Joystick\jdict.c
                                           	//-------------------------------------------------------------------------------------------------- C:\Embedded\Joystick\jdict.c
                                           		case CCS_SDO_INIT_DOWNLOAD:                                                    C:\Embedded\Joystick\jdict.c
0004b0   0101     MOVLB     0x1            			if (SDO_Process != CAN_NOTHING)		//already processing an sdo?                 C:\Embedded\Joystick\jdict.c
0004b2   5192     MOVF      0x92,0x0,0x1                                                                                    
0004b4   e013     BZ        0x4dc                                                                                           
                                           			{                                                                             C:\Embedded\Joystick\jdict.c
0004b6   0e03     MOVLW     0x3            				Send_SDO_Abort(sdobuf.INDEX, sdobuf.SUB_INDEX, E_CS_CMD);                    C:\Embedded\Joystick\jdict.c
0004b8   6ee6     MOVWF     0xe6,0x0                                                                                        
0004ba   0ef7     MOVLW     0xf7                                                                                            
0004bc   cfdb     MOVFF     0xfdb,0xfe6                                                                                     
0004be   ffe6                                                                                                               
0004c0   0ef8     MOVLW     0xf8                                                                                            
0004c2   cfdb     MOVFF     0xfdb,0xfe6                                                                                     
0004c4   ffe6                                                                                                               
0004c6   0ef9     MOVLW     0xf9                                                                                            
0004c8   cfdb     MOVFF     0xfdb,0xfe6                                                                                     
0004ca   ffe6                                                                                                               
0004cc   ec28     CALL      0x1450,0x0                                                                                      
0004ce   f00a                                                                                                               
0004d0   52e5     MOVF      0xe5,0x1,0x0                                                                                    
0004d2   52e5     MOVF      0xe5,0x1,0x0                                                                                    
0004d4   52e5     MOVF      0xe5,0x1,0x0                                                                                    
0004d6   52e5     MOVF      0xe5,0x1,0x0                                                                                    
0004d8   ef0c     GOTO      0xe18          				return;                                                                      C:\Embedded\Joystick\jdict.c
0004da   f007                                                                                                               
                                           			}                                                                             C:\Embedded\Joystick\jdict.c
                                           			                                                                              C:\Embedded\Joystick\jdict.c
0004dc   0ef8     MOVLW     0xf8           			multiplexor.index = (sdobuf.TXBD2 * 0x100) + sdobuf.TXBD1; //put index in int format C:\Embedded\Joystick\jdict.c
0004de   50db     MOVF      0xdb,0x0,0x0                                                                                    
0004e0   6e00     MOVWF     0x0,0x0                                                                                         
0004e2   6a01     CLRF      0x1,0x0                                                                                         
0004e4   c000     MOVFF     0x0,0x1                                                                                         
0004e6   f001                                                                                                               
0004e8   6a00     CLRF      0x0,0x0                                                                                         
0004ea   0ef9     MOVLW     0xf9                                                                                            
0004ec   50db     MOVF      0xdb,0x0,0x0                                                                                    
0004ee   0101     MOVLB     0x1                                                                                             
0004f0   2400     ADDWF     0x0,0x0,0x0                                                                                     
0004f2   6f86     MOVWF     0x86,0x1                                                                                        
0004f4   0e00     MOVLW     0x0                                                                                             
0004f6   2001     ADDWFC    0x1,0x0,0x0                                                                                     
0004f8   6f87     MOVWF     0x87,0x1                                                                                        
0004fa   0ef7     MOVLW     0xf7           			multiplexor.sindex = sdobuf.SUB_INDEX;                                        C:\Embedded\Joystick\jdict.c
0004fc   cfdb     MOVFF     0xfdb,0x188                                                                                     
0004fe   f188                                                                                                               
000500   c188     MOVFF     0x188,0xfe6    			return_code = find_dictionary_entry(multiplexor.index, multiplexor.sindex);   C:\Embedded\Joystick\jdict.c
000502   ffe6                                                                                                               
000504   c186     MOVFF     0x186,0xfe6                                                                                     
000506   ffe6                                                                                                               
000508   c187     MOVFF     0x187,0xfe6                                                                                     
00050a   ffe6                                                                                                               
00050c   ec16     CALL      0xe2c,0x0                                                                                       
00050e   f007                                                                                                               
000510   52e5     MOVF      0xe5,0x1,0x0                                                                                    
000512   52e5     MOVF      0xe5,0x1,0x0                                                                                    
000514   52e5     MOVF      0xe5,0x1,0x0                                                                                    
000516   6ee7     MOVWF     0xe7,0x0                                                                                        
000518   0e0a     MOVLW     0xa                                                                                             
00051a   cfe7     MOVFF     0xfe7,0xfdb                                                                                     
00051c   ffdb                                                                                                               
                                                                                                                            C:\Embedded\Joystick\jdict.c
00051e   50db     MOVF      0xdb,0x0,0x0   			if(return_code == E_SUCCESS) //entry exists?                                  C:\Embedded\Joystick\jdict.c
000520   e001     BZ        0x524                                                                                           
000522   d136     BRA       0x790                                                                                           
                                           			{				                                                                         C:\Embedded\Joystick\jdict.c
000524   c1be     MOVFF     0x1be,0xff6    				multiplexor.length = od_entry->len;                                          C:\Embedded\Joystick\jdict.c
000526   fff6                                                                                                               
000528   c1bf     MOVFF     0x1bf,0xff7                                                                                     
00052a   fff7                                                                                                               
00052c   0e04     MOVLW     0x4                                                                                             
00052e   26f6     ADDWF     0xf6,0x1,0x0                                                                                    
000530   0e00     MOVLW     0x0                                                                                             
000532   22f7     ADDWFC    0xf7,0x1,0x0                                                                                    
000534   0009     TBLRDPOSTINC                                                                                              
000536   cff5     MOVFF     0xff5,0x189                                                                                     
000538   f189                                                                                                               
00053a   000a     TBLRDPOSTDEC                                                                                              
00053c   cff5     MOVFF     0xff5,0x18a                                                                                     
00053e   f18a                                                                                                               
000540   0101     MOVLB     0x1            				toggle = FALSE;                                                              C:\Embedded\Joystick\jdict.c
000542   6b94     CLRF      0x94,0x1                                                                                        
000544   0101     MOVLB     0x1            				downloadbytes = -1;                                                          C:\Embedded\Joystick\jdict.c
000546   6995     SETF      0x95,0x1                                                                                        
000548   6996     SETF      0x96,0x1                                                                                        
                                                                                                                            C:\Embedded\Joystick\jdict.c
00054a   c1be     MOVFF     0x1be,0xff6    				if ((od_entry->ctl) & (WR_BIT))									//if it can be written               C:\Embedded\Joystick\jdict.c
00054c   fff6                                                                                                               
00054e   c1bf     MOVFF     0x1bf,0xff7                                                                                     
000550   fff7                                                                                                               
000552   0e03     MOVLW     0x3                                                                                             
000554   26f6     ADDWF     0xf6,0x1,0x0                                                                                    
000556   0e00     MOVLW     0x0                                                                                             
000558   22f7     ADDWFC    0xf7,0x1,0x0                                                                                    
00055a   0008     TBLRD                                                                                                     
00055c   50f5     MOVF      0xf5,0x0,0x0                                                                                    
00055e   0b02     ANDLW     0x2                                                                                             
000560   e101     BNZ       0x564                                                                                           
000562   d104     BRA       0x76c                                                                                           
                                           				{                                                                            C:\Embedded\Joystick\jdict.c
000564   50d9     MOVF      0xd9,0x0,0x0   					switch ((sdobuf.COMMAND.INIT_DOWNLOAD.s), (sdobuf.COMMAND.INIT_DOWNLOAD.e)) C:\Embedded\Joystick\jdict.c
000566   0ffa     ADDLW     0xfa                                                                                            
000568   6ee9     MOVWF     0xe9,0x0                                                                                        
00056a   0eff     MOVLW     0xff                                                                                            
00056c   20da     ADDWFC    0xda,0x0,0x0                                                                                    
00056e   6eea     MOVWF     0xea,0x0                                                                                        
000570   50d9     MOVF      0xd9,0x0,0x0                                                                                    
000572   0ffa     ADDLW     0xfa                                                                                            
000574   6ee9     MOVWF     0xe9,0x0                                                                                        
000576   0eff     MOVLW     0xff                                                                                            
000578   20da     ADDWFC    0xda,0x0,0x0                                                                                    
00057a   6eea     MOVWF     0xea,0x0                                                                                        
00057c   50ef     MOVF      0xef,0x0,0x0                                                                                    
00057e   0b02     ANDLW     0x2                                                                                             
000580   e001     BZ        0x584                                                                                           
000582   0e01     MOVLW     0x1                                                                                             
000584   0a00     XORLW     0x0                                                                                             
000586   e101     BNZ       0x58a                                                                                           
000588   d0a3     BRA       0x6d0                                                                                           
00058a   0a01     XORLW     0x1                                                                                             
00058c   e001     BZ        0x590                                                                                           
00058e   d0d3     BRA       0x736                                                                                           
                                           					{                                                                           C:\Embedded\Joystick\jdict.c
                                           						case (TRUE, TRUE):					//expedited, all data in the message                C:\Embedded\Joystick\jdict.c
000590   0e04     MOVLW     0x4            							numchars = 4 - sdobuf.COMMAND.INIT_DOWNLOAD.n;                            C:\Embedded\Joystick\jdict.c
000592   6e00     MOVWF     0x0,0x0                                                                                         
000594   50d9     MOVF      0xd9,0x0,0x0                                                                                    
000596   0ffa     ADDLW     0xfa                                                                                            
000598   6ee9     MOVWF     0xe9,0x0                                                                                        
00059a   0eff     MOVLW     0xff                                                                                            
00059c   20da     ADDWFC    0xda,0x0,0x0                                                                                    
00059e   6eea     MOVWF     0xea,0x0                                                                                        
0005a0   50ef     MOVF      0xef,0x0,0x0                                                                                    
0005a2   0b0c     ANDLW     0xc                                                                                             
0005a4   42e8     RRNCF     0xe8,0x1,0x0                                                                                    
0005a6   42e8     RRNCF     0xe8,0x1,0x0                                                                                    
0005a8   5c00     SUBWF     0x0,0x0,0x0                                                                                     
0005aa   6ee7     MOVWF     0xe7,0x0                                                                                        
0005ac   0e08     MOVLW     0x8                                                                                             
0005ae   cfe7     MOVFF     0xfe7,0xfdb                                                                                     
0005b0   ffdb                                                                                                               
0005b2   cfdb     MOVFF     0xfdb,0x0      							if (numchars <= od_entry->len)		//check for appropiate length             C:\Embedded\Joystick\jdict.c
0005b4   f000                                                                                                               
0005b6   c1be     MOVFF     0x1be,0xff6                                                                                     
0005b8   fff6                                                                                                               
0005ba   c1bf     MOVFF     0x1bf,0xff7                                                                                     
0005bc   fff7                                                                                                               
0005be   0e04     MOVLW     0x4                                                                                             
0005c0   26f6     ADDWF     0xf6,0x1,0x0                                                                                    
0005c2   0e00     MOVLW     0x0                                                                                             
0005c4   22f7     ADDWFC    0xf7,0x1,0x0                                                                                    
0005c6   0009     TBLRDPOSTINC                                                                                              
0005c8   cff5     MOVFF     0xff5,0x1                                                                                       
0005ca   f001                                                                                                               
0005cc   0008     TBLRD                                                                                                     
0005ce   cff5     MOVFF     0xff5,0x2                                                                                       
0005d0   f002                                                                                                               
0005d2   5000     MOVF      0x0,0x0,0x0                                                                                     
0005d4   5c01     SUBWF     0x1,0x0,0x0                                                                                     
0005d6   0e00     MOVLW     0x0                                                                                             
0005d8   5802     SUBWFB    0x2,0x0,0x0                                                                                     
0005da   e368     BNC       0x6ac                                                                                           
                                           							{                                                                         C:\Embedded\Joystick\jdict.c
0005dc   0101     MOVLB     0x1            								q_copy_from_RAM = &sdobuf.B0;					//data                                 C:\Embedded\Joystick\jdict.c
0005de   50d9     MOVF      0xd9,0x0,0x0                                                                                    
0005e0   0ff6     ADDLW     0xf6                                                                                            
0005e2   6fcb     MOVWF     0xcb,0x1                                                                                        
0005e4   0eff     MOVLW     0xff                                                                                            
0005e6   20da     ADDWFC    0xda,0x0,0x0                                                                                    
0005e8   6fcc     MOVWF     0xcc,0x1                                                                                        
0005ea   0e08     MOVLW     0x8            								Download_to_RAM((char *)q_copy_from_RAM, (char *)&SDO_RX_HOLD_DATA[0], numchars); //collect data in HOLD buffer C:\Embedded\Joystick\jdict.c
0005ec   cfdb     MOVFF     0xfdb,0xfe6                                                                                     
0005ee   ffe6                                                                                                               
0005f0   6ae6     CLRF      0xe6,0x0                                                                                        
0005f2   0e60     MOVLW     0x60                                                                                            
0005f4   6ee6     MOVWF     0xe6,0x0                                                                                        
0005f6   0e00     MOVLW     0x0                                                                                             
0005f8   6ee6     MOVWF     0xe6,0x0                                                                                        
0005fa   c1cb     MOVFF     0x1cb,0xfe6                                                                                     
0005fc   ffe6                                                                                                               
0005fe   c1cc     MOVFF     0x1cc,0xfe6                                                                                     
000600   ffe6                                                                                                               
000602   de4d     RCALL     0x29e                                                                                           
000604   6e00     MOVWF     0x0,0x0                                                                                         
000606   0e06     MOVLW     0x6                                                                                             
000608   5ee1     SUBWF     0xe1,0x1,0x0                                                                                    
00060a   5000     MOVF      0x0,0x0,0x0                                                                                     
00060c   0e08     MOVLW     0x8            								return_code = Download_to_EEPROM ((unsigned char *)&SDO_RX_HOLD_DATA[0], numchars); 	//CHECKS FOR DATA CONSISTANCY  C:\Embedded\Joystick\jdict.c
00060e   cfdb     MOVFF     0xfdb,0xfe6                                                                                     
000610   ffe6                                                                                                               
000612   6ae6     CLRF      0xe6,0x0                                                                                        
000614   0e60     MOVLW     0x60                                                                                            
000616   6ee6     MOVWF     0xe6,0x0                                                                                        
000618   0e00     MOVLW     0x0                                                                                             
00061a   6ee6     MOVWF     0xe6,0x0                                                                                        
00061c   dd19     RCALL     0x50                                                                                            
00061e   52e5     MOVF      0xe5,0x1,0x0                                                                                    
000620   52e5     MOVF      0xe5,0x1,0x0                                                                                    
000622   52e5     MOVF      0xe5,0x1,0x0                                                                                    
000624   52e5     MOVF      0xe5,0x1,0x0                                                                                    
000626   6ee7     MOVWF     0xe7,0x0                                                                                        
000628   0e0a     MOVLW     0xa                                                                                             
00062a   cfe7     MOVFF     0xfe7,0xfdb                                                                                     
00062c   ffdb                                                                                                               
00062e   50db     MOVF      0xdb,0x0,0x0   								if (return_code == E_SUCCESS)                                            C:\Embedded\Joystick\jdict.c
000630   e12a     BNZ       0x686                                                                                           
                                           								{                                                                        C:\Embedded\Joystick\jdict.c
000632   0e08     MOVLW     0x8            									Copy_RAM_to_RAM((char *)&SDO_RX_HOLD_DATA[0], (char *)od_entry->pROM, numchars); C:\Embedded\Joystick\jdict.c
000634   cfdb     MOVFF     0xfdb,0xfe6                                                                                     
000636   ffe6                                                                                                               
000638   6ae6     CLRF      0xe6,0x0                                                                                        
00063a   c1be     MOVFF     0x1be,0xff6                                                                                     
00063c   fff6                                                                                                               
00063e   c1bf     MOVFF     0x1bf,0xff7                                                                                     
000640   fff7                                                                                                               
000642   0e06     MOVLW     0x6                                                                                             
000644   26f6     ADDWF     0xf6,0x1,0x0                                                                                    
000646   0e00     MOVLW     0x0                                                                                             
000648   22f7     ADDWFC    0xf7,0x1,0x0                                                                                    
00064a   0009     TBLRDPOSTINC                                                                                              
00064c   cff5     MOVFF     0xff5,0xfe6                                                                                     
00064e   ffe6                                                                                                               
000650   0008     TBLRD                                                                                                     
000652   cff5     MOVFF     0xff5,0xfe6                                                                                     
000654   ffe6                                                                                                               
000656   0e60     MOVLW     0x60                                                                                            
000658   6ee6     MOVWF     0xe6,0x0                                                                                        
00065a   0e00     MOVLW     0x0                                                                                             
00065c   6ee6     MOVWF     0xe6,0x0                                                                                        
00065e   ddd8     RCALL     0x210                                                                                           
000660   6e00     MOVWF     0x0,0x0                                                                                         
000662   0e06     MOVLW     0x6                                                                                             
000664   5ee1     SUBWF     0xe1,0x1,0x0                                                                                    
000666   5000     MOVF      0x0,0x0,0x0                                                                                     
000668   0ef7     MOVLW     0xf7           									Send_Init_Download_resp(sdobuf.INDEX, sdobuf.SUB_INDEX);                C:\Embedded\Joystick\jdict.c
00066a   cfdb     MOVFF     0xfdb,0xfe6                                                                                     
00066c   ffe6                                                                                                               
00066e   0ef8     MOVLW     0xf8                                                                                            
000670   cfdb     MOVFF     0xfdb,0xfe6                                                                                     
000672   ffe6                                                                                                               
000674   0ef9     MOVLW     0xf9                                                                                            
000676   cfdb     MOVFF     0xfdb,0xfe6                                                                                     
000678   ffe6                                                                                                               
00067a   ecd1     CALL      0x13a2,0x0                                                                                      
00067c   f009                                                                                                               
00067e   52e5     MOVF      0xe5,0x1,0x0                                                                                    
000680   52e5     MOVF      0xe5,0x1,0x0                                                                                    
000682   52e5     MOVF      0xe5,0x1,0x0                                                                                    
                                           								}                                                                        C:\Embedded\Joystick\jdict.c
000684   d012     BRA       0x6aa          								else                                                                     C:\Embedded\Joystick\jdict.c
000686   0e0a     MOVLW     0xa            									Send_SDO_Abort(sdobuf.INDEX, sdobuf.SUB_INDEX, return_code);            C:\Embedded\Joystick\jdict.c
000688   cfdb     MOVFF     0xfdb,0xfe6                                                                                     
00068a   ffe6                                                                                                               
00068c   0ef7     MOVLW     0xf7                                                                                            
00068e   cfdb     MOVFF     0xfdb,0xfe6                                                                                     
000690   ffe6                                                                                                               
000692   0ef8     MOVLW     0xf8                                                                                            
000694   cfdb     MOVFF     0xfdb,0xfe6                                                                                     
000696   ffe6                                                                                                               
000698   0ef9     MOVLW     0xf9                                                                                            
00069a   cfdb     MOVFF     0xfdb,0xfe6                                                                                     
00069c   ffe6                                                                                                               
00069e   ec28     CALL      0x1450,0x0                                                                                      
0006a0   f00a                                                                                                               
0006a2   52e5     MOVF      0xe5,0x1,0x0                                                                                    
0006a4   52e5     MOVF      0xe5,0x1,0x0                                                                                    
0006a6   52e5     MOVF      0xe5,0x1,0x0                                                                                    
0006a8   52e5     MOVF      0xe5,0x1,0x0                                                                                    
                                           							}                                                                         C:\Embedded\Joystick\jdict.c
0006aa   d011     BRA       0x6ce          							else                                                                      C:\Embedded\Joystick\jdict.c
0006ac   0e04     MOVLW     0x4            								Send_SDO_Abort(sdobuf.INDEX, sdobuf.SUB_INDEX, E_MEMORY_OUT);            C:\Embedded\Joystick\jdict.c
0006ae   6ee6     MOVWF     0xe6,0x0                                                                                        
0006b0   0ef7     MOVLW     0xf7                                                                                            
0006b2   cfdb     MOVFF     0xfdb,0xfe6                                                                                     
0006b4   ffe6                                                                                                               
0006b6   0ef8     MOVLW     0xf8                                                                                            
0006b8   cfdb     MOVFF     0xfdb,0xfe6                                                                                     
0006ba   ffe6                                                                                                               
0006bc   0ef9     MOVLW     0xf9                                                                                            
0006be   cfdb     MOVFF     0xfdb,0xfe6                                                                                     
0006c0   ffe6                                                                                                               
0006c2   ec28     CALL      0x1450,0x0                                                                                      
0006c4   f00a                                                                                                               
0006c6   52e5     MOVF      0xe5,0x1,0x0                                                                                    
0006c8   52e5     MOVF      0xe5,0x1,0x0                                                                                    
0006ca   52e5     MOVF      0xe5,0x1,0x0                                                                                    
0006cc   52e5     MOVF      0xe5,0x1,0x0                                                                                    
                                                                                                                            C:\Embedded\Joystick\jdict.c
0006ce   d04d     BRA       0x76a          							break;                                                                    C:\Embedded\Joystick\jdict.c
                                                                                                                            C:\Embedded\Joystick\jdict.c
                                           						case (TRUE,FALSE):		//no data in sdobuf, d has number of bytes to be downloaded C:\Embedded\Joystick\jdict.c
                                                                                                                            C:\Embedded\Joystick\jdict.c
0006d0   0ef5     MOVLW     0xf5           							downloadbytes = (unsigned int) sdobuf.B0 + (sdobuf.B1*0x100); //number of download stated C:\Embedded\Joystick\jdict.c
0006d2   50db     MOVF      0xdb,0x0,0x0                                                                                    
0006d4   6e00     MOVWF     0x0,0x0                                                                                         
0006d6   6a01     CLRF      0x1,0x0                                                                                         
0006d8   c000     MOVFF     0x0,0x1                                                                                         
0006da   f001                                                                                                               
0006dc   6a00     CLRF      0x0,0x0                                                                                         
0006de   0ef6     MOVLW     0xf6                                                                                            
0006e0   50db     MOVF      0xdb,0x0,0x0                                                                                    
0006e2   2400     ADDWF     0x0,0x0,0x0                                                                                     
0006e4   6f95     MOVWF     0x95,0x1                                                                                        
0006e6   0e00     MOVLW     0x0                                                                                             
0006e8   2001     ADDWFC    0x1,0x0,0x0                                                                                     
0006ea   6f96     MOVWF     0x96,0x1                                                                                        
0006ec   c1be     MOVFF     0x1be,0xff6    							if (downloadbytes > od_entry->len)                                        C:\Embedded\Joystick\jdict.c
0006ee   fff6                                                                                                               
0006f0   c1bf     MOVFF     0x1bf,0xff7                                                                                     
0006f2   fff7                                                                                                               
0006f4   0e04     MOVLW     0x4                                                                                             
0006f6   26f6     ADDWF     0xf6,0x1,0x0                                                                                    
0006f8   0e00     MOVLW     0x0                                                                                             
0006fa   22f7     ADDWFC    0xf7,0x1,0x0                                                                                    
0006fc   0009     TBLRDPOSTINC                                                                                              
0006fe   cff5     MOVFF     0xff5,0x0                                                                                       
000700   f000                                                                                                               
000702   0008     TBLRD                                                                                                     
000704   cff5     MOVFF     0xff5,0x1                                                                                       
000706   f001                                                                                                               
000708   5195     MOVF      0x95,0x0,0x1                                                                                    
00070a   5c00     SUBWF     0x0,0x0,0x0                                                                                     
00070c   5196     MOVF      0x96,0x0,0x1                                                                                    
00070e   5801     SUBWFB    0x1,0x0,0x0                                                                                     
000710   e212     BC        0x736                                                                                           
                                           							{                                                                         C:\Embedded\Joystick\jdict.c
000712   0e04     MOVLW     0x4            								Send_SDO_Abort(sdobuf.INDEX, sdobuf.SUB_INDEX, E_MEMORY_OUT);            C:\Embedded\Joystick\jdict.c
000714   6ee6     MOVWF     0xe6,0x0                                                                                        
000716   0ef7     MOVLW     0xf7                                                                                            
000718   cfdb     MOVFF     0xfdb,0xfe6                                                                                     
00071a   ffe6                                                                                                               
00071c   0ef8     MOVLW     0xf8                                                                                            
00071e   cfdb     MOVFF     0xfdb,0xfe6                                                                                     
000720   ffe6                                                                                                               
000722   0ef9     MOVLW     0xf9                                                                                            
000724   cfdb     MOVFF     0xfdb,0xfe6                                                                                     
000726   ffe6                                                                                                               
000728   ec28     CALL      0x1450,0x0                                                                                      
00072a   f00a                                                                                                               
00072c   52e5     MOVF      0xe5,0x1,0x0                                                                                    
00072e   52e5     MOVF      0xe5,0x1,0x0                                                                                    
000730   52e5     MOVF      0xe5,0x1,0x0                                                                                    
000732   52e5     MOVF      0xe5,0x1,0x0                                                                                    
000734   d371     BRA       0xe18          								return;                                                                  C:\Embedded\Joystick\jdict.c
                                           							}                                                                         C:\Embedded\Joystick\jdict.c
                                           /*	let code fall through-->break; <-- let code fall through  */                  C:\Embedded\Joystick\jdict.c
                                           						default:		//not expedited, download bytes have been stated, or no data specified, expect download messages C:\Embedded\Joystick\jdict.c
000736   0e08     MOVLW     0x8            							numchars = 0;                                                             C:\Embedded\Joystick\jdict.c
000738   6adb     CLRF      0xdb,0x0                                                                                        
00073a   0101     MOVLB     0x1            							SDO_RX_INDEX = 0;						//index for next download                          C:\Embedded\Joystick\jdict.c
00073c   6b93     CLRF      0x93,0x1                                                                                        
00073e   0101     MOVLB     0x1            							SDO_Process = CAN_DONWLOADING;                                            C:\Embedded\Joystick\jdict.c
000740   0e01     MOVLW     0x1                                                                                             
000742   6f92     MOVWF     0x92,0x1                                                                                        
000744   0101     MOVLB     0x1            							z_SDO_timer = INTER_SDO_TIMER;                                            C:\Embedded\Joystick\jdict.c
000746   0ee8     MOVLW     0xe8                                                                                            
000748   6fa2     MOVWF     0xa2,0x1                                                                                        
00074a   0e03     MOVLW     0x3                                                                                             
00074c   6fa3     MOVWF     0xa3,0x1                                                                                        
00074e   0ef7     MOVLW     0xf7           							Send_Init_Download_resp(sdobuf.INDEX, sdobuf.SUB_INDEX);                  C:\Embedded\Joystick\jdict.c
000750   cfdb     MOVFF     0xfdb,0xfe6                                                                                     
000752   ffe6                                                                                                               
000754   0ef8     MOVLW     0xf8                                                                                            
000756   cfdb     MOVFF     0xfdb,0xfe6                                                                                     
000758   ffe6                                                                                                               
00075a   0ef9     MOVLW     0xf9                                                                                            
00075c   cfdb     MOVFF     0xfdb,0xfe6                                                                                     
00075e   ffe6                                                                                                               
000760   ecd1     CALL      0x13a2,0x0                                                                                      
000762   f009                                                                                                               
000764   52e5     MOVF      0xe5,0x1,0x0                                                                                    
000766   52e5     MOVF      0xe5,0x1,0x0                                                                                    
000768   52e5     MOVF      0xe5,0x1,0x0                                                                                    
                                           					}                                                                           C:\Embedded\Joystick\jdict.c
                                           				}                                                                            C:\Embedded\Joystick\jdict.c
00076a   d011     BRA       0x78e          				else	//WR_BIT set i.e. writable entry?                                       C:\Embedded\Joystick\jdict.c
                                           				{                                                                            C:\Embedded\Joystick\jdict.c
00076c   0e07     MOVLW     0x7            					Send_SDO_Abort(sdobuf.INDEX, sdobuf.SUB_INDEX, E_CANNOT_WRITE);             C:\Embedded\Joystick\jdict.c
00076e   6ee6     MOVWF     0xe6,0x0                                                                                        
000770   0ef7     MOVLW     0xf7                                                                                            
000772   cfdb     MOVFF     0xfdb,0xfe6                                                                                     
000774   ffe6                                                                                                               
000776   0ef8     MOVLW     0xf8                                                                                            
000778   cfdb     MOVFF     0xfdb,0xfe6                                                                                     
00077a   ffe6                                                                                                               
00077c   0ef9     MOVLW     0xf9                                                                                            
00077e   cfdb     MOVFF     0xfdb,0xfe6                                                                                     
000780   ffe6                                                                                                               
000782   ec28     CALL      0x1450,0x0                                                                                      
000784   f00a                                                                                                               
000786   52e5     MOVF      0xe5,0x1,0x0                                                                                    
000788   52e5     MOVF      0xe5,0x1,0x0                                                                                    
00078a   52e5     MOVF      0xe5,0x1,0x0                                                                                    
00078c   52e5     MOVF      0xe5,0x1,0x0                                                                                    
                                           				}                                                                            C:\Embedded\Joystick\jdict.c
                                           			}                                                                             C:\Embedded\Joystick\jdict.c
00078e   d012     BRA       0x7b4          			else	//entry found?                                                           C:\Embedded\Joystick\jdict.c
                                           			{                                                                             C:\Embedded\Joystick\jdict.c
000790   0e0a     MOVLW     0xa            				Send_SDO_Abort(sdobuf.INDEX, sdobuf.SUB_INDEX, return_code);                 C:\Embedded\Joystick\jdict.c
000792   cfdb     MOVFF     0xfdb,0xfe6                                                                                     
000794   ffe6                                                                                                               
000796   0ef7     MOVLW     0xf7                                                                                            
000798   cfdb     MOVFF     0xfdb,0xfe6                                                                                     
00079a   ffe6                                                                                                               
00079c   0ef8     MOVLW     0xf8                                                                                            
00079e   cfdb     MOVFF     0xfdb,0xfe6                                                                                     
0007a0   ffe6                                                                                                               
0007a2   0ef9     MOVLW     0xf9                                                                                            
0007a4   cfdb     MOVFF     0xfdb,0xfe6                                                                                     
0007a6   ffe6                                                                                                               
0007a8   ec28     CALL      0x1450,0x0                                                                                      
0007aa   f00a                                                                                                               
0007ac   52e5     MOVF      0xe5,0x1,0x0                                                                                    
0007ae   52e5     MOVF      0xe5,0x1,0x0                                                                                    
0007b0   52e5     MOVF      0xe5,0x1,0x0                                                                                    
0007b2   52e5     MOVF      0xe5,0x1,0x0                                                                                    
                                           			}                                                                             C:\Embedded\Joystick\jdict.c
0007b4   d331     BRA       0xe18          			break;                                                                        C:\Embedded\Joystick\jdict.c
                                                                                                                            C:\Embedded\Joystick\jdict.c
                                           	//-------------------------------------------------------------------------------------------------- C:\Embedded\Joystick\jdict.c
                                           		case CCS_SDO_SEGMNT_DOWNLOAD:                                                  C:\Embedded\Joystick\jdict.c
0007b6   0101     MOVLB     0x1            			if (SDO_Process != CAN_DONWLOADING)		//must be already downloading            C:\Embedded\Joystick\jdict.c
0007b8   0592     DECF      0x92,0x0,0x1                                                                                    
0007ba   e014     BZ        0x7e4                                                                                           
                                           			{                                                                             C:\Embedded\Joystick\jdict.c
0007bc   0101     MOVLB     0x1            				SDO_RX_INDEX = 0;					//unexpected download                                  C:\Embedded\Joystick\jdict.c
0007be   6b93     CLRF      0x93,0x1                                                                                        
0007c0   0e03     MOVLW     0x3            				Send_SDO_Abort(sdobuf.INDEX, sdobuf.SUB_INDEX, E_CS_CMD);                    C:\Embedded\Joystick\jdict.c
0007c2   6ee6     MOVWF     0xe6,0x0                                                                                        
0007c4   0ef7     MOVLW     0xf7                                                                                            
0007c6   cfdb     MOVFF     0xfdb,0xfe6                                                                                     
0007c8   ffe6                                                                                                               
0007ca   0ef8     MOVLW     0xf8                                                                                            
0007cc   cfdb     MOVFF     0xfdb,0xfe6                                                                                     
0007ce   ffe6                                                                                                               
0007d0   0ef9     MOVLW     0xf9                                                                                            
0007d2   cfdb     MOVFF     0xfdb,0xfe6                                                                                     
0007d4   ffe6                                                                                                               
0007d6   ec28     CALL      0x1450,0x0                                                                                      
0007d8   f00a                                                                                                               
0007da   52e5     MOVF      0xe5,0x1,0x0                                                                                    
0007dc   52e5     MOVF      0xe5,0x1,0x0                                                                                    
0007de   52e5     MOVF      0xe5,0x1,0x0                                                                                    
0007e0   52e5     MOVF      0xe5,0x1,0x0                                                                                    
0007e2   d31a     BRA       0xe18          				return;                                                                      C:\Embedded\Joystick\jdict.c
                                           			}                                                                             C:\Embedded\Joystick\jdict.c
0007e4   0e07     MOVLW     0x7            			numchars = 7 - sdobuf.COMMAND.DOWNLOAD_SEGMT.n;                               C:\Embedded\Joystick\jdict.c
0007e6   6e00     MOVWF     0x0,0x0                                                                                         
0007e8   50d9     MOVF      0xd9,0x0,0x0                                                                                    
0007ea   0ffa     ADDLW     0xfa                                                                                            
0007ec   6ee9     MOVWF     0xe9,0x0                                                                                        
0007ee   0eff     MOVLW     0xff                                                                                            
0007f0   20da     ADDWFC    0xda,0x0,0x0                                                                                    
0007f2   6eea     MOVWF     0xea,0x0                                                                                        
0007f4   50ef     MOVF      0xef,0x0,0x0                                                                                    
0007f6   0b0e     ANDLW     0xe                                                                                             
0007f8   42e8     RRNCF     0xe8,0x1,0x0                                                                                    
0007fa   5c00     SUBWF     0x0,0x0,0x0                                                                                     
0007fc   6ee7     MOVWF     0xe7,0x0                                                                                        
0007fe   0e08     MOVLW     0x8                                                                                             
000800   cfe7     MOVFF     0xfe7,0xfdb                                                                                     
000802   ffdb                                                                                                               
000804   50db     MOVF      0xdb,0x0,0x0   			if (SDO_RX_INDEX + numchars > multiplexor.length)                             C:\Embedded\Joystick\jdict.c
000806   0101     MOVLB     0x1                                                                                             
000808   2593     ADDWF     0x93,0x0,0x1                                                                                    
00080a   6e00     MOVWF     0x0,0x0                                                                                         
00080c   5000     MOVF      0x0,0x0,0x0                                                                                     
00080e   0101     MOVLB     0x1                                                                                             
000810   5d89     SUBWF     0x89,0x0,0x1                                                                                    
000812   0e00     MOVLW     0x0                                                                                             
000814   598a     SUBWFB    0x8a,0x0,0x1                                                                                    
000816   e20f     BC        0x836                                                                                           
                                           			{                                                                             C:\Embedded\Joystick\jdict.c
000818   0e04     MOVLW     0x4            				Send_SDO_Abort(multiplexor.index, multiplexor.sindex, E_MEMORY_OUT);		//buffer runaway C:\Embedded\Joystick\jdict.c
00081a   6ee6     MOVWF     0xe6,0x0                                                                                        
00081c   c188     MOVFF     0x188,0xfe6                                                                                     
00081e   ffe6                                                                                                               
000820   c186     MOVFF     0x186,0xfe6                                                                                     
000822   ffe6                                                                                                               
000824   c187     MOVFF     0x187,0xfe6                                                                                     
000826   ffe6                                                                                                               
000828   ec28     CALL      0x1450,0x0                                                                                      
00082a   f00a                                                                                                               
00082c   52e5     MOVF      0xe5,0x1,0x0                                                                                    
00082e   52e5     MOVF      0xe5,0x1,0x0                                                                                    
000830   52e5     MOVF      0xe5,0x1,0x0                                                                                    
000832   52e5     MOVF      0xe5,0x1,0x0                                                                                    
000834   d2f1     BRA       0xe18          				return;                                                                      C:\Embedded\Joystick\jdict.c
                                           			}                                                                             C:\Embedded\Joystick\jdict.c
000836   0101     MOVLB     0x1            			if ((downloadbytes != -1) && (SDO_RX_INDEX + numchars > downloadbytes)) //more than stated number download bytes? C:\Embedded\Joystick\jdict.c
000838   1d95     COMF      0x95,0x0,0x1                                                                                    
00083a   e101     BNZ       0x83e                                                                                           
00083c   1d96     COMF      0x96,0x0,0x1                                                                                    
00083e   e01a     BZ        0x874                                                                                           
000840   0e08     MOVLW     0x8                                                                                             
000842   50db     MOVF      0xdb,0x0,0x0                                                                                    
000844   0101     MOVLB     0x1                                                                                             
000846   2593     ADDWF     0x93,0x0,0x1                                                                                    
000848   6e00     MOVWF     0x0,0x0                                                                                         
00084a   5000     MOVF      0x0,0x0,0x0                                                                                     
00084c   0101     MOVLB     0x1                                                                                             
00084e   5d95     SUBWF     0x95,0x0,0x1                                                                                    
000850   0e00     MOVLW     0x0                                                                                             
000852   5996     SUBWFB    0x96,0x0,0x1                                                                                    
000854   e20f     BC        0x874                                                                                           
                                           			{                                                                             C:\Embedded\Joystick\jdict.c
000856   0e04     MOVLW     0x4            				Send_SDO_Abort(multiplexor.index, multiplexor.sindex, E_MEMORY_OUT);		//buffer runaway C:\Embedded\Joystick\jdict.c
000858   6ee6     MOVWF     0xe6,0x0                                                                                        
00085a   c188     MOVFF     0x188,0xfe6                                                                                     
00085c   ffe6                                                                                                               
00085e   c186     MOVFF     0x186,0xfe6                                                                                     
000860   ffe6                                                                                                               
000862   c187     MOVFF     0x187,0xfe6                                                                                     
000864   ffe6                                                                                                               
000866   ec28     CALL      0x1450,0x0                                                                                      
000868   f00a                                                                                                               
00086a   52e5     MOVF      0xe5,0x1,0x0                                                                                    
00086c   52e5     MOVF      0xe5,0x1,0x0                                                                                    
00086e   52e5     MOVF      0xe5,0x1,0x0                                                                                    
000870   52e5     MOVF      0xe5,0x1,0x0                                                                                    
000872   d2d2     BRA       0xe18          				return;                                                                      C:\Embedded\Joystick\jdict.c
                                           			}                                                                             C:\Embedded\Joystick\jdict.c
                                                                                                                            C:\Embedded\Joystick\jdict.c
000874   50d9     MOVF      0xd9,0x0,0x0   			if (toggle != sdobuf.COMMAND.DOWNLOAD_SEGMT.t)                                C:\Embedded\Joystick\jdict.c
000876   0ffa     ADDLW     0xfa                                                                                            
000878   6ee9     MOVWF     0xe9,0x0                                                                                        
00087a   0eff     MOVLW     0xff                                                                                            
00087c   20da     ADDWFC    0xda,0x0,0x0                                                                                    
00087e   6eea     MOVWF     0xea,0x0                                                                                        
000880   50ef     MOVF      0xef,0x0,0x0                                                                                    
000882   0b10     ANDLW     0x10                                                                                            
000884   e001     BZ        0x888                                                                                           
000886   0e01     MOVLW     0x1                                                                                             
000888   0101     MOVLB     0x1                                                                                             
00088a   5d94     SUBWF     0x94,0x0,0x1                                                                                    
00088c   e00f     BZ        0x8ac                                                                                           
                                           			{                                                                             C:\Embedded\Joystick\jdict.c
00088e   0e01     MOVLW     0x1            				Send_SDO_Abort(multiplexor.index, multiplexor.sindex, E_TOGGLE);             C:\Embedded\Joystick\jdict.c
000890   6ee6     MOVWF     0xe6,0x0                                                                                        
000892   c188     MOVFF     0x188,0xfe6                                                                                     
000894   ffe6                                                                                                               
000896   c186     MOVFF     0x186,0xfe6                                                                                     
000898   ffe6                                                                                                               
00089a   c187     MOVFF     0x187,0xfe6                                                                                     
00089c   ffe6                                                                                                               
00089e   ec28     CALL      0x1450,0x0                                                                                      
0008a0   f00a                                                                                                               
0008a2   52e5     MOVF      0xe5,0x1,0x0                                                                                    
0008a4   52e5     MOVF      0xe5,0x1,0x0                                                                                    
0008a6   52e5     MOVF      0xe5,0x1,0x0                                                                                    
0008a8   52e5     MOVF      0xe5,0x1,0x0                                                                                    
0008aa   d2b6     BRA       0xe18          				return;                                                                      C:\Embedded\Joystick\jdict.c
                                           			}                                                                             C:\Embedded\Joystick\jdict.c
0008ac   0101     MOVLB     0x1            			q_copy_from_RAM = &sdobuf.D0; 									//data                                 C:\Embedded\Joystick\jdict.c
0008ae   50d9     MOVF      0xd9,0x0,0x0                                                                                    
0008b0   0ff9     ADDLW     0xf9                                                                                            
0008b2   6fcb     MOVWF     0xcb,0x1                                                                                        
0008b4   0eff     MOVLW     0xff                                                                                            
0008b6   20da     ADDWFC    0xda,0x0,0x0                                                                                    
0008b8   6fcc     MOVWF     0xcc,0x1                                                                                        
0008ba   0e08     MOVLW     0x8            			Download_to_RAM((char *)q_copy_from_RAM, (char *)&SDO_RX_HOLD_DATA[SDO_RX_INDEX], numchars); //collect data in HOLD buffer C:\Embedded\Joystick\jdict.c
0008bc   cfdb     MOVFF     0xfdb,0xfe6                                                                                     
0008be   ffe6                                                                                                               
0008c0   6ae6     CLRF      0xe6,0x0                                                                                        
0008c2   0101     MOVLB     0x1                                                                                             
0008c4   5193     MOVF      0x93,0x0,0x1                                                                                    
0008c6   6a01     CLRF      0x1,0x0                                                                                         
0008c8   0f60     ADDLW     0x60                                                                                            
0008ca   6e00     MOVWF     0x0,0x0                                                                                         
0008cc   0e00     MOVLW     0x0                                                                                             
0008ce   2201     ADDWFC    0x1,0x1,0x0                                                                                     
0008d0   c000     MOVFF     0x0,0xfe6                                                                                       
0008d2   ffe6                                                                                                               
0008d4   c001     MOVFF     0x1,0xfe6                                                                                       
0008d6   ffe6                                                                                                               
0008d8   c1cb     MOVFF     0x1cb,0xfe6                                                                                     
0008da   ffe6                                                                                                               
0008dc   c1cc     MOVFF     0x1cc,0xfe6                                                                                     
0008de   ffe6                                                                                                               
0008e0   dcde     RCALL     0x29e                                                                                           
0008e2   6e02     MOVWF     0x2,0x0                                                                                         
0008e4   0e06     MOVLW     0x6                                                                                             
0008e6   5ee1     SUBWF     0xe1,0x1,0x0                                                                                    
0008e8   5002     MOVF      0x2,0x0,0x0                                                                                     
0008ea   0e08     MOVLW     0x8            			SDO_RX_INDEX += numchars;						//index for next download                      C:\Embedded\Joystick\jdict.c
0008ec   50db     MOVF      0xdb,0x0,0x0                                                                                    
0008ee   0101     MOVLB     0x1                                                                                             
0008f0   2793     ADDWF     0x93,0x1,0x1                                                                                    
0008f2   0101     MOVLB     0x1            			SDO_Process = CAN_DONWLOADING;					//download not finished                    C:\Embedded\Joystick\jdict.c
0008f4   0e01     MOVLW     0x1                                                                                             
0008f6   6f92     MOVWF     0x92,0x1                                                                                        
                                                                                                                            C:\Embedded\Joystick\jdict.c
0008f8   50d9     MOVF      0xd9,0x0,0x0   			if (sdobuf.COMMAND.DOWNLOAD_SEGMT.c)			//last segment downloaded              C:\Embedded\Joystick\jdict.c
0008fa   0ffa     ADDLW     0xfa                                                                                            
0008fc   6ee9     MOVWF     0xe9,0x0                                                                                        
0008fe   0eff     MOVLW     0xff                                                                                            
000900   20da     ADDWFC    0xda,0x0,0x0                                                                                    
000902   6eea     MOVWF     0xea,0x0                                                                                        
000904   50ef     MOVF      0xef,0x0,0x0                                                                                    
000906   0b01     ANDLW     0x1                                                                                             
000908   e05f     BZ        0x9c8                                                                                           
                                           			{			// now copy the received data into the OD address'                        C:\Embedded\Joystick\jdict.c
                                                                                                                            C:\Embedded\Joystick\jdict.c
00090a   0101     MOVLB     0x1            				if ((downloadbytes == -1) || ((downloadbytes != -1) && (downloadbytes == SDO_RX_INDEX))) C:\Embedded\Joystick\jdict.c
00090c   1d95     COMF      0x95,0x0,0x1                                                                                    
00090e   e101     BNZ       0x912                                                                                           
000910   1d96     COMF      0x96,0x0,0x1                                                                                    
000912   e00f     BZ        0x932                                                                                           
000914   1d95     COMF      0x95,0x0,0x1                                                                                    
000916   e101     BNZ       0x91a                                                                                           
000918   1d96     COMF      0x96,0x0,0x1                                                                                    
00091a   e047     BZ        0x9aa                                                                                           
00091c   0101     MOVLB     0x1                                                                                             
00091e   5193     MOVF      0x93,0x0,0x1                                                                                    
000920   6e00     MOVWF     0x0,0x0                                                                                         
000922   6a01     CLRF      0x1,0x0                                                                                         
000924   5000     MOVF      0x0,0x0,0x0                                                                                     
000926   0101     MOVLB     0x1                                                                                             
000928   1995     XORWF     0x95,0x0,0x1                                                                                    
00092a   e102     BNZ       0x930                                                                                           
00092c   5001     MOVF      0x1,0x0,0x0                                                                                     
00092e   1996     XORWF     0x96,0x0,0x1                                                                                    
000930   e13c     BNZ       0x9aa                                                                                           
                                           				{                                                                            C:\Embedded\Joystick\jdict.c
000932   0101     MOVLB     0x1            					return_code = Download_to_EEPROM ((unsigned char *)&SDO_RX_HOLD_DATA[0], SDO_RX_INDEX); 	//ALSO CHECKS FOR DATA CONSISTANCY  C:\Embedded\Joystick\jdict.c
000934   5193     MOVF      0x93,0x0,0x1                                                                                    
000936   6ee6     MOVWF     0xe6,0x0                                                                                        
000938   6ae6     CLRF      0xe6,0x0                                                                                        
00093a   0e60     MOVLW     0x60                                                                                            
00093c   6ee6     MOVWF     0xe6,0x0                                                                                        
00093e   0e00     MOVLW     0x0                                                                                             
000940   6ee6     MOVWF     0xe6,0x0                                                                                        
000942   ec28     CALL      0x50,0x0                                                                                        
000944   f000                                                                                                               
000946   52e5     MOVF      0xe5,0x1,0x0                                                                                    
000948   52e5     MOVF      0xe5,0x1,0x0                                                                                    
00094a   52e5     MOVF      0xe5,0x1,0x0                                                                                    
00094c   52e5     MOVF      0xe5,0x1,0x0                                                                                    
00094e   6ee7     MOVWF     0xe7,0x0                                                                                        
000950   0e0a     MOVLW     0xa                                                                                             
000952   cfe7     MOVFF     0xfe7,0xfdb                                                                                     
000954   ffdb                                                                                                               
                                                                                                                            C:\Embedded\Joystick\jdict.c
000956   50db     MOVF      0xdb,0x0,0x0   					if (return_code == E_SUCCESS)                                               C:\Embedded\Joystick\jdict.c
000958   e125     BNZ       0x9a4                                                                                           
                                           					{                                                                           C:\Embedded\Joystick\jdict.c
00095a   c188     MOVFF     0x188,0xfe6    						find_dictionary_entry(multiplexor.index, multiplexor.sindex);              C:\Embedded\Joystick\jdict.c
00095c   ffe6                                                                                                               
00095e   c186     MOVFF     0x186,0xfe6                                                                                     
000960   ffe6                                                                                                               
000962   c187     MOVFF     0x187,0xfe6                                                                                     
000964   ffe6                                                                                                               
000966   da62     RCALL     0xe2c                                                                                           
000968   52e5     MOVF      0xe5,0x1,0x0                                                                                    
00096a   52e5     MOVF      0xe5,0x1,0x0                                                                                    
00096c   52e5     MOVF      0xe5,0x1,0x0                                                                                    
00096e   0101     MOVLB     0x1            						Copy_RAM_to_RAM((char *)&SDO_RX_HOLD_DATA[0], (char *)od_entry->pROM, SDO_RX_INDEX); C:\Embedded\Joystick\jdict.c
000970   5193     MOVF      0x93,0x0,0x1                                                                                    
000972   6ee6     MOVWF     0xe6,0x0                                                                                        
000974   6ae6     CLRF      0xe6,0x0                                                                                        
000976   c1be     MOVFF     0x1be,0xff6                                                                                     
000978   fff6                                                                                                               
00097a   c1bf     MOVFF     0x1bf,0xff7                                                                                     
00097c   fff7                                                                                                               
00097e   0e06     MOVLW     0x6                                                                                             
000980   26f6     ADDWF     0xf6,0x1,0x0                                                                                    
000982   0e00     MOVLW     0x0                                                                                             
000984   22f7     ADDWFC    0xf7,0x1,0x0                                                                                    
000986   0009     TBLRDPOSTINC                                                                                              
000988   cff5     MOVFF     0xff5,0xfe6                                                                                     
00098a   ffe6                                                                                                               
00098c   0008     TBLRD                                                                                                     
00098e   cff5     MOVFF     0xff5,0xfe6                                                                                     
000990   ffe6                                                                                                               
000992   0e60     MOVLW     0x60                                                                                            
000994   6ee6     MOVWF     0xe6,0x0                                                                                        
000996   0e00     MOVLW     0x0                                                                                             
000998   6ee6     MOVWF     0xe6,0x0                                                                                        
00099a   dc3a     RCALL     0x210                                                                                           
00099c   6e00     MOVWF     0x0,0x0                                                                                         
00099e   0e06     MOVLW     0x6                                                                                             
0009a0   5ee1     SUBWF     0xe1,0x1,0x0                                                                                    
0009a2   5000     MOVF      0x0,0x0,0x0                                                                                     
                                           					}                                                                           C:\Embedded\Joystick\jdict.c
0009a4   0101     MOVLB     0x1            					SDO_Process = CAN_NOTHING;                                                  C:\Embedded\Joystick\jdict.c
0009a6   6b92     CLRF      0x92,0x1                                                                                        
                                           				}                                                                            C:\Embedded\Joystick\jdict.c
0009a8   d00f     BRA       0x9c8          				else	//client quits before completing downloadbytes                          C:\Embedded\Joystick\jdict.c
                                           				{                                                                            C:\Embedded\Joystick\jdict.c
0009aa   0e0e     MOVLW     0xe            					Send_SDO_Abort(multiplexor.index, multiplexor.sindex, E_LEN_SERVICE);       C:\Embedded\Joystick\jdict.c
0009ac   6ee6     MOVWF     0xe6,0x0                                                                                        
0009ae   c188     MOVFF     0x188,0xfe6                                                                                     
0009b0   ffe6                                                                                                               
0009b2   c186     MOVFF     0x186,0xfe6                                                                                     
0009b4   ffe6                                                                                                               
0009b6   c187     MOVFF     0x187,0xfe6                                                                                     
0009b8   ffe6                                                                                                               
0009ba   ec28     CALL      0x1450,0x0                                                                                      
0009bc   f00a                                                                                                               
0009be   52e5     MOVF      0xe5,0x1,0x0                                                                                    
0009c0   52e5     MOVF      0xe5,0x1,0x0                                                                                    
0009c2   52e5     MOVF      0xe5,0x1,0x0                                                                                    
0009c4   52e5     MOVF      0xe5,0x1,0x0                                                                                    
0009c6   d228     BRA       0xe18          					return;                                                                     C:\Embedded\Joystick\jdict.c
                                           				}                                                                            C:\Embedded\Joystick\jdict.c
                                           			}                                                                             C:\Embedded\Joystick\jdict.c
                                                                                                                            C:\Embedded\Joystick\jdict.c
0009c8   c194     MOVFF     0x194,0xfe6    			Send_Download_resp(toggle);                                                   C:\Embedded\Joystick\jdict.c
0009ca   ffe6                                                                                                               
0009cc   ecec     CALL      0x13d8,0x0                                                                                      
0009ce   f009                                                                                                               
0009d0   52e5     MOVF      0xe5,0x1,0x0                                                                                    
0009d2   0101     MOVLB     0x1            			z_SDO_timer = INTER_SDO_TIMER;                                                C:\Embedded\Joystick\jdict.c
0009d4   0ee8     MOVLW     0xe8                                                                                            
0009d6   6fa2     MOVWF     0xa2,0x1                                                                                        
0009d8   0e03     MOVLW     0x3                                                                                             
0009da   6fa3     MOVWF     0xa3,0x1                                                                                        
0009dc   0101     MOVLB     0x1            			toggle ^= 1;                                                                  C:\Embedded\Joystick\jdict.c
0009de   7194     BTG       0x94,0x0,0x1                                                                                    
                                                                                                                            C:\Embedded\Joystick\jdict.c
0009e0   d21b     BRA       0xe18          			break;                                                                        C:\Embedded\Joystick\jdict.c
                                                                                                                            C:\Embedded\Joystick\jdict.c
                                           //-------------------------------------------------------------------------------------------------- C:\Embedded\Joystick\jdict.c
                                           		case SCS_SDO_INIT_UPLOAD:                                                      C:\Embedded\Joystick\jdict.c
0009e2   0101     MOVLB     0x1            			if (SDO_Process != CAN_NOTHING)		//already processing an sdo?                 C:\Embedded\Joystick\jdict.c
0009e4   5192     MOVF      0x92,0x0,0x1                                                                                    
0009e6   e013     BZ        0xa0e                                                                                           
                                           			{                                                                             C:\Embedded\Joystick\jdict.c
0009e8   6b92     CLRF      0x92,0x1       				SDO_Process = CAN_NOTHING;                                                   C:\Embedded\Joystick\jdict.c
0009ea   0e03     MOVLW     0x3            				Send_SDO_Abort(sdobuf.INDEX, sdobuf.SUB_INDEX, E_CS_CMD);                    C:\Embedded\Joystick\jdict.c
0009ec   6ee6     MOVWF     0xe6,0x0                                                                                        
0009ee   0ef7     MOVLW     0xf7                                                                                            
0009f0   cfdb     MOVFF     0xfdb,0xfe6                                                                                     
0009f2   ffe6                                                                                                               
0009f4   0ef8     MOVLW     0xf8                                                                                            
0009f6   cfdb     MOVFF     0xfdb,0xfe6                                                                                     
0009f8   ffe6                                                                                                               
0009fa   0ef9     MOVLW     0xf9                                                                                            
0009fc   cfdb     MOVFF     0xfdb,0xfe6                                                                                     
0009fe   ffe6                                                                                                               
000a00   ec28     CALL      0x1450,0x0                                                                                      
000a02   f00a                                                                                                               
000a04   52e5     MOVF      0xe5,0x1,0x0                                                                                    
000a06   52e5     MOVF      0xe5,0x1,0x0                                                                                    
000a08   52e5     MOVF      0xe5,0x1,0x0                                                                                    
000a0a   52e5     MOVF      0xe5,0x1,0x0                                                                                    
000a0c   d205     BRA       0xe18          				return;                                                                      C:\Embedded\Joystick\jdict.c
                                           			}                                                                             C:\Embedded\Joystick\jdict.c
                                                                                                                            C:\Embedded\Joystick\jdict.c
000a0e   0ef8     MOVLW     0xf8           			multiplexor.index = (sdobuf.TXBD2 * 0x100) + sdobuf.TXBD1; //put index in int format C:\Embedded\Joystick\jdict.c
000a10   50db     MOVF      0xdb,0x0,0x0                                                                                    
000a12   6e00     MOVWF     0x0,0x0                                                                                         
000a14   6a01     CLRF      0x1,0x0                                                                                         
000a16   c000     MOVFF     0x0,0x1                                                                                         
000a18   f001                                                                                                               
000a1a   6a00     CLRF      0x0,0x0                                                                                         
000a1c   0ef9     MOVLW     0xf9                                                                                            
000a1e   50db     MOVF      0xdb,0x0,0x0                                                                                    
000a20   0101     MOVLB     0x1                                                                                             
000a22   2400     ADDWF     0x0,0x0,0x0                                                                                     
000a24   6f86     MOVWF     0x86,0x1                                                                                        
000a26   0e00     MOVLW     0x0                                                                                             
000a28   2001     ADDWFC    0x1,0x0,0x0                                                                                     
000a2a   6f87     MOVWF     0x87,0x1                                                                                        
000a2c   0ef7     MOVLW     0xf7           			multiplexor.sindex = sdobuf.SUB_INDEX;                                        C:\Embedded\Joystick\jdict.c
000a2e   cfdb     MOVFF     0xfdb,0x188                                                                                     
000a30   f188                                                                                                               
000a32   c188     MOVFF     0x188,0xfe6    			return_code = find_dictionary_entry(multiplexor.index, multiplexor.sindex);   C:\Embedded\Joystick\jdict.c
000a34   ffe6                                                                                                               
000a36   c186     MOVFF     0x186,0xfe6                                                                                     
000a38   ffe6                                                                                                               
000a3a   c187     MOVFF     0x187,0xfe6                                                                                     
000a3c   ffe6                                                                                                               
000a3e   d9f6     RCALL     0xe2c                                                                                           
000a40   52e5     MOVF      0xe5,0x1,0x0                                                                                    
000a42   52e5     MOVF      0xe5,0x1,0x0                                                                                    
000a44   52e5     MOVF      0xe5,0x1,0x0                                                                                    
000a46   6ee7     MOVWF     0xe7,0x0                                                                                        
000a48   0e0a     MOVLW     0xa                                                                                             
000a4a   cfe7     MOVFF     0xfe7,0xfdb                                                                                     
000a4c   ffdb                                                                                                               
000a4e   50db     MOVF      0xdb,0x0,0x0   			if(return_code == E_SUCCESS) //entry exists?                                  C:\Embedded\Joystick\jdict.c
000a50   e001     BZ        0xa54                                                                                           
000a52   d0ca     BRA       0xbe8                                                                                           
                                           			{				                                                                         C:\Embedded\Joystick\jdict.c
000a54   c1be     MOVFF     0x1be,0xff6    				multiplexor.length = od_entry->len;                                          C:\Embedded\Joystick\jdict.c
000a56   fff6                                                                                                               
000a58   c1bf     MOVFF     0x1bf,0xff7                                                                                     
000a5a   fff7                                                                                                               
000a5c   0e04     MOVLW     0x4                                                                                             
000a5e   26f6     ADDWF     0xf6,0x1,0x0                                                                                    
000a60   0e00     MOVLW     0x0                                                                                             
000a62   22f7     ADDWFC    0xf7,0x1,0x0                                                                                    
000a64   0009     TBLRDPOSTINC                                                                                              
000a66   cff5     MOVFF     0xff5,0x189                                                                                     
000a68   f189                                                                                                               
000a6a   000a     TBLRDPOSTDEC                                                                                              
000a6c   cff5     MOVFF     0xff5,0x18a                                                                                     
000a6e   f18a                                                                                                               
000a70   c1be     MOVFF     0x1be,0xff6    				if ((od_entry->ctl) & (RD_BIT))				//if it can be read                       C:\Embedded\Joystick\jdict.c
000a72   fff6                                                                                                               
000a74   c1bf     MOVFF     0x1bf,0xff7                                                                                     
000a76   fff7                                                                                                               
000a78   0e03     MOVLW     0x3                                                                                             
000a7a   26f6     ADDWF     0xf6,0x1,0x0                                                                                    
000a7c   0e00     MOVLW     0x0                                                                                             
000a7e   22f7     ADDWFC    0xf7,0x1,0x0                                                                                    
000a80   0008     TBLRD                                                                                                     
000a82   50f5     MOVF      0xf5,0x0,0x0                                                                                    
000a84   0b01     ANDLW     0x1                                                                                             
000a86   e101     BNZ       0xa8a                                                                                           
000a88   d09d     BRA       0xbc4                                                                                           
                                           				{                                                                            C:\Embedded\Joystick\jdict.c
000a8a   0101     MOVLB     0x1            					TXB_B [CAN_OPEN_IdSdoTx].COMMAND.INIT_DOWNLOAD_RESPONSE.x = 0;              C:\Embedded\Joystick\jdict.c
000a8c   9113     BCF       0x13,0x0,0x1                                                                                    
000a8e   9313     BCF       0x13,0x1,0x1                                                                                    
000a90   9513     BCF       0x13,0x2,0x1                                                                                    
000a92   9713     BCF       0x13,0x3,0x1                                                                                    
000a94   9913     BCF       0x13,0x4,0x1                                                                                    
000a96   0ef9     MOVLW     0xf9           					TXB_B [CAN_OPEN_IdSdoTx].TXBD1 = sdobuf.TXBD1;	//write index back - in backwards format C:\Embedded\Joystick\jdict.c
000a98   cfdb     MOVFF     0xfdb,0x112                                                                                     
000a9a   f112                                                                                                               
000a9c   0ef8     MOVLW     0xf8           					TXB_B [CAN_OPEN_IdSdoTx].TXBD2 = sdobuf.TXBD2;	                             C:\Embedded\Joystick\jdict.c
000a9e   cfdb     MOVFF     0xfdb,0x111                                                                                     
000aa0   f111                                                                                                               
000aa2   c188     MOVFF     0x188,0x110    					TXB_B [CAN_OPEN_IdSdoTx].SUB_INDEX = multiplexor.sindex;                    C:\Embedded\Joystick\jdict.c
000aa4   f110                                                                                                               
000aa6   8113     BSF       0x13,0x0,0x1   					TXB_B [CAN_OPEN_IdSdoTx].COMMAND.INIT_UPLOAD_RESPONSE.s = 1; //data size is indicated (n or d) C:\Embedded\Joystick\jdict.c
000aa8   c1be     MOVFF     0x1be,0xff6    					numchars = od_entry->len;                                                   C:\Embedded\Joystick\jdict.c
000aaa   fff6                                                                                                               
000aac   c1bf     MOVFF     0x1bf,0xff7                                                                                     
000aae   fff7                                                                                                               
000ab0   0e04     MOVLW     0x4                                                                                             
000ab2   26f6     ADDWF     0xf6,0x1,0x0                                                                                    
000ab4   0e00     MOVLW     0x0                                                                                             
000ab6   22f7     ADDWFC    0xf7,0x1,0x0                                                                                    
000ab8   0008     TBLRD                                                                                                     
000aba   0e08     MOVLW     0x8                                                                                             
000abc   cff5     MOVFF     0xff5,0xfdb                                                                                     
000abe   ffdb                                                                                                               
                                                                                                                            C:\Embedded\Joystick\jdict.c
000ac0   50db     MOVF      0xdb,0x0,0x0   					if (numchars <= 4)                                                          C:\Embedded\Joystick\jdict.c
000ac2   0804     SUBLW     0x4                                                                                             
000ac4   e357     BNC       0xb74                                                                                           
                                           					{							//send expidited                                                    C:\Embedded\Joystick\jdict.c
000ac6   0e08     MOVLW     0x8            						TXB_B [CAN_OPEN_IdSdoTx].COMMAND.INIT_UPLOAD_RESPONSE.n = (4 - numchars); // <-- data size indicated in n C:\Embedded\Joystick\jdict.c
000ac8   cfdb     MOVFF     0xfdb,0xfe6                                                                                     
000aca   ffe6                                                                                                               
000acc   0e04     MOVLW     0x4                                                                                             
000ace   52e5     MOVF      0xe5,0x1,0x0                                                                                    
000ad0   80d8     BSF       0xd8,0x0,0x0                                                                                    
000ad2   54e7     SUBFWB    0xe7,0x0,0x0                                                                                    
000ad4   0b03     ANDLW     0x3                                                                                             
000ad6   6ef3     MOVWF     0xf3,0x0                                                                                        
000ad8   46f3     RLNCF     0xf3,0x1,0x0                                                                                    
000ada   46f3     RLNCF     0xf3,0x1,0x0                                                                                    
000adc   0ef3     MOVLW     0xf3                                                                                            
000ade   1513     ANDWF     0x13,0x0,0x1                                                                                    
000ae0   10f3     IORWF     0xf3,0x0,0x0                                                                                    
000ae2   6f13     MOVWF     0x13,0x1                                                                                        
000ae4   8313     BSF       0x13,0x1,0x1   						TXB_B [CAN_OPEN_IdSdoTx].COMMAND.INIT_UPLOAD_RESPONSE.e = 1; //expedited   C:\Embedded\Joystick\jdict.c
000ae6   0101     MOVLB     0x1            						SDO_Process = CAN_NOTHING;                                                 C:\Embedded\Joystick\jdict.c
000ae8   6b92     CLRF      0x92,0x1                                                                                        
000aea   c1be     MOVFF     0x1be,0xff6    						if (od_entry->ctl & ROM_BIT)                                               C:\Embedded\Joystick\jdict.c
000aec   fff6                                                                                                               
000aee   c1bf     MOVFF     0x1bf,0xff7                                                                                     
000af0   fff7                                                                                                               
000af2   0e03     MOVLW     0x3                                                                                             
000af4   26f6     ADDWF     0xf6,0x1,0x0                                                                                    
000af6   0e00     MOVLW     0x0                                                                                             
000af8   22f7     ADDWFC    0xf7,0x1,0x0                                                                                    
000afa   0008     TBLRD                                                                                                     
000afc   50f5     MOVF      0xf5,0x0,0x0                                                                                    
000afe   0b04     ANDLW     0x4                                                                                             
000b00   e01c     BZ        0xb3a                                                                                           
000b02   0e08     MOVLW     0x8            							Upload_from_ROM(od_entry->pROM, (char *)&TXB_B [CAN_OPEN_IdSdoTx].B0, numchars); C:\Embedded\Joystick\jdict.c
000b04   cfdb     MOVFF     0xfdb,0xfe6                                                                                     
000b06   ffe6                                                                                                               
000b08   6ae6     CLRF      0xe6,0x0                                                                                        
000b0a   0e0f     MOVLW     0xf                                                                                             
000b0c   6ee6     MOVWF     0xe6,0x0                                                                                        
000b0e   0e01     MOVLW     0x1                                                                                             
000b10   6ee6     MOVWF     0xe6,0x0                                                                                        
000b12   c1be     MOVFF     0x1be,0xff6                                                                                     
000b14   fff6                                                                                                               
000b16   c1bf     MOVFF     0x1bf,0xff7                                                                                     
000b18   fff7                                                                                                               
000b1a   0e06     MOVLW     0x6                                                                                             
000b1c   26f6     ADDWF     0xf6,0x1,0x0                                                                                    
000b1e   0e00     MOVLW     0x0                                                                                             
000b20   22f7     ADDWFC    0xf7,0x1,0x0                                                                                    
000b22   0009     TBLRDPOSTINC                                                                                              
000b24   cff5     MOVFF     0xff5,0xfe6                                                                                     
000b26   ffe6                                                                                                               
000b28   0008     TBLRD                                                                                                     
000b2a   cff5     MOVFF     0xff5,0xfe6                                                                                     
000b2c   ffe6                                                                                                               
000b2e   dc45     RCALL     0x3ba                                                                                           
000b30   6e00     MOVWF     0x0,0x0                                                                                         
000b32   0e06     MOVLW     0x6                                                                                             
000b34   5ee1     SUBWF     0xe1,0x1,0x0                                                                                    
000b36   5000     MOVF      0x0,0x0,0x0                                                                                     
000b38   d01c     BRA       0xb72          						else                                                                       C:\Embedded\Joystick\jdict.c
000b3a   0e08     MOVLW     0x8            							Upload_from_RAM((char *)od_entry->pROM, (char *)&TXB_B [CAN_OPEN_IdSdoTx].B0, numchars); C:\Embedded\Joystick\jdict.c
000b3c   cfdb     MOVFF     0xfdb,0xfe6                                                                                     
000b3e   ffe6                                                                                                               
000b40   6ae6     CLRF      0xe6,0x0                                                                                        
000b42   0e0f     MOVLW     0xf                                                                                             
000b44   6ee6     MOVWF     0xe6,0x0                                                                                        
000b46   0e01     MOVLW     0x1                                                                                             
000b48   6ee6     MOVWF     0xe6,0x0                                                                                        
000b4a   c1be     MOVFF     0x1be,0xff6                                                                                     
000b4c   fff6                                                                                                               
000b4e   c1bf     MOVFF     0x1bf,0xff7                                                                                     
000b50   fff7                                                                                                               
000b52   0e06     MOVLW     0x6                                                                                             
000b54   26f6     ADDWF     0xf6,0x1,0x0                                                                                    
000b56   0e00     MOVLW     0x0                                                                                             
000b58   22f7     ADDWFC    0xf7,0x1,0x0                                                                                    
000b5a   0009     TBLRDPOSTINC                                                                                              
000b5c   cff5     MOVFF     0xff5,0xfe6                                                                                     
000b5e   ffe6                                                                                                               
000b60   0008     TBLRD                                                                                                     
000b62   cff5     MOVFF     0xff5,0xfe6                                                                                     
000b64   ffe6                                                                                                               
000b66   ec96     CALL      0x32c,0x0                                                                                       
000b68   f001                                                                                                               
000b6a   6e00     MOVWF     0x0,0x0                                                                                         
000b6c   0e06     MOVLW     0x6                                                                                             
000b6e   5ee1     SUBWF     0xe1,0x1,0x0                                                                                    
000b70   5000     MOVF      0x0,0x0,0x0                                                                                     
                                           					}                                                                           C:\Embedded\Joystick\jdict.c
000b72   d020     BRA       0xbb4          					else                                                                        C:\Embedded\Joystick\jdict.c
                                           					{                                                                           C:\Embedded\Joystick\jdict.c
000b74   9513     BCF       0x13,0x2,0x1   						TXB_B [CAN_OPEN_IdSdoTx].COMMAND.INIT_UPLOAD_RESPONSE.n = 4; //no data in this msg C:\Embedded\Joystick\jdict.c
000b76   9713     BCF       0x13,0x3,0x1                                                                                    
000b78   9313     BCF       0x13,0x1,0x1   						TXB_B [CAN_OPEN_IdSdoTx].COMMAND.INIT_UPLOAD_RESPONSE.e = 0; //not expedited C:\Embedded\Joystick\jdict.c
000b7a   0e04     MOVLW     0x4            						Upload_from_RAM((char *)_null, (char *)&TXB_B [CAN_OPEN_IdSdoTx].B0, 4);   C:\Embedded\Joystick\jdict.c
000b7c   6ee6     MOVWF     0xe6,0x0                                                                                        
000b7e   6ae6     CLRF      0xe6,0x0                                                                                        
000b80   0e0f     MOVLW     0xf                                                                                             
000b82   6ee6     MOVWF     0xe6,0x0                                                                                        
000b84   0e01     MOVLW     0x1                                                                                             
000b86   6ee6     MOVWF     0xe6,0x0                                                                                        
000b88   cfd9     MOVFF     0xfd9,0xfe6                                                                                     
000b8a   ffe6                                                                                                               
000b8c   cfda     MOVFF     0xfda,0xfe6                                                                                     
000b8e   ffe6                                                                                                               
000b90   ec96     CALL      0x32c,0x0                                                                                       
000b92   f001                                                                                                               
000b94   6e00     MOVWF     0x0,0x0                                                                                         
000b96   0e06     MOVLW     0x6                                                                                             
000b98   5ee1     SUBWF     0xe1,0x1,0x0                                                                                    
000b9a   5000     MOVF      0x0,0x0,0x0                                                                                     
000b9c   0e08     MOVLW     0x8            						TXB_B [CAN_OPEN_IdSdoTx].B0 = numchars; // <-- data size indicated in d    C:\Embedded\Joystick\jdict.c
000b9e   cfdb     MOVFF     0xfdb,0x10f                                                                                     
000ba0   f10f                                                                                                               
000ba2   0101     MOVLB     0x1            						SDO_Process = CAN_UPLOADING;                                               C:\Embedded\Joystick\jdict.c
000ba4   0e02     MOVLW     0x2                                                                                             
000ba6   6f92     MOVWF     0x92,0x1                                                                                        
000ba8   0101     MOVLB     0x1            						SDO_RX_INDEX = 0; //running index into dict data                           C:\Embedded\Joystick\jdict.c
000baa   6b93     CLRF      0x93,0x1                                                                                        
000bac   0101     MOVLB     0x1            						toggle = FALSE;                                                            C:\Embedded\Joystick\jdict.c
000bae   6b94     CLRF      0x94,0x1                                                                                        
000bb0   0e09     MOVLW     0x9            						lastseg = FALSE;                                                           C:\Embedded\Joystick\jdict.c
000bb2   6adb     CLRF      0xdb,0x0                                                                                        
                                           					}                                                                           C:\Embedded\Joystick\jdict.c
                                                                                                                            C:\Embedded\Joystick\jdict.c
000bb4   ec02     CALL      0x1404,0x0     					Send_Init_Upload_resp();                                                    C:\Embedded\Joystick\jdict.c
000bb6   f00a                                                                                                               
000bb8   0101     MOVLB     0x1            					z_SDO_timer = INTER_SDO_TIMER;                                              C:\Embedded\Joystick\jdict.c
000bba   0ee8     MOVLW     0xe8                                                                                            
000bbc   6fa2     MOVWF     0xa2,0x1                                                                                        
000bbe   0e03     MOVLW     0x3                                                                                             
000bc0   6fa3     MOVWF     0xa3,0x1                                                                                        
                                           				}                                                                            C:\Embedded\Joystick\jdict.c
000bc2   d011     BRA       0xbe6          				else                                                                         C:\Embedded\Joystick\jdict.c
                                           				{                                                                            C:\Embedded\Joystick\jdict.c
000bc4   0e06     MOVLW     0x6            					Send_SDO_Abort(sdobuf.INDEX, sdobuf.SUB_INDEX, E_CANNOT_READ);              C:\Embedded\Joystick\jdict.c
000bc6   6ee6     MOVWF     0xe6,0x0                                                                                        
000bc8   0ef7     MOVLW     0xf7                                                                                            
000bca   cfdb     MOVFF     0xfdb,0xfe6                                                                                     
000bcc   ffe6                                                                                                               
000bce   0ef8     MOVLW     0xf8                                                                                            
000bd0   cfdb     MOVFF     0xfdb,0xfe6                                                                                     
000bd2   ffe6                                                                                                               
000bd4   0ef9     MOVLW     0xf9                                                                                            
000bd6   cfdb     MOVFF     0xfdb,0xfe6                                                                                     
000bd8   ffe6                                                                                                               
000bda   ec28     CALL      0x1450,0x0                                                                                      
000bdc   f00a                                                                                                               
000bde   52e5     MOVF      0xe5,0x1,0x0                                                                                    
000be0   52e5     MOVF      0xe5,0x1,0x0                                                                                    
000be2   52e5     MOVF      0xe5,0x1,0x0                                                                                    
000be4   52e5     MOVF      0xe5,0x1,0x0                                                                                    
                                           				}                                                                            C:\Embedded\Joystick\jdict.c
                                           			}                                                                             C:\Embedded\Joystick\jdict.c
000be6   d012     BRA       0xc0c          			else                                                                          C:\Embedded\Joystick\jdict.c
                                           			{                                                                             C:\Embedded\Joystick\jdict.c
000be8   0e0a     MOVLW     0xa            				Send_SDO_Abort(sdobuf.INDEX, sdobuf.SUB_INDEX, return_code);	//entry not found C:\Embedded\Joystick\jdict.c
000bea   cfdb     MOVFF     0xfdb,0xfe6                                                                                     
000bec   ffe6                                                                                                               
000bee   0ef7     MOVLW     0xf7                                                                                            
000bf0   cfdb     MOVFF     0xfdb,0xfe6                                                                                     
000bf2   ffe6                                                                                                               
000bf4   0ef8     MOVLW     0xf8                                                                                            
000bf6   cfdb     MOVFF     0xfdb,0xfe6                                                                                     
000bf8   ffe6                                                                                                               
000bfa   0ef9     MOVLW     0xf9                                                                                            
000bfc   cfdb     MOVFF     0xfdb,0xfe6                                                                                     
000bfe   ffe6                                                                                                               
000c00   ec28     CALL      0x1450,0x0                                                                                      
000c02   f00a                                                                                                               
000c04   52e5     MOVF      0xe5,0x1,0x0                                                                                    
000c06   52e5     MOVF      0xe5,0x1,0x0                                                                                    
000c08   52e5     MOVF      0xe5,0x1,0x0                                                                                    
000c0a   52e5     MOVF      0xe5,0x1,0x0                                                                                    
                                           			}                                                                             C:\Embedded\Joystick\jdict.c
000c0c   d105     BRA       0xe18          			break;                                                                        C:\Embedded\Joystick\jdict.c
                                           //-------------------------------------------------------------------------------------------------- C:\Embedded\Joystick\jdict.c
                                           		case CCS_SDO_UPLOAD_SEGMNT:                                                    C:\Embedded\Joystick\jdict.c
000c0e   0e02     MOVLW     0x2            			if (SDO_Process != CAN_UPLOADING)		//already processing an sdo?               C:\Embedded\Joystick\jdict.c
000c10   0101     MOVLB     0x1                                                                                             
000c12   5d92     SUBWF     0x92,0x0,0x1                                                                                    
000c14   e012     BZ        0xc3a                                                                                           
                                           			{                                                                             C:\Embedded\Joystick\jdict.c
000c16   0e03     MOVLW     0x3            				Send_SDO_Abort(sdobuf.INDEX, sdobuf.SUB_INDEX, E_CS_CMD);                    C:\Embedded\Joystick\jdict.c
000c18   6ee6     MOVWF     0xe6,0x0                                                                                        
000c1a   0ef7     MOVLW     0xf7                                                                                            
000c1c   cfdb     MOVFF     0xfdb,0xfe6                                                                                     
000c1e   ffe6                                                                                                               
000c20   0ef8     MOVLW     0xf8                                                                                            
000c22   cfdb     MOVFF     0xfdb,0xfe6                                                                                     
000c24   ffe6                                                                                                               
000c26   0ef9     MOVLW     0xf9                                                                                            
000c28   cfdb     MOVFF     0xfdb,0xfe6                                                                                     
000c2a   ffe6                                                                                                               
000c2c   ec28     CALL      0x1450,0x0                                                                                      
000c2e   f00a                                                                                                               
000c30   52e5     MOVF      0xe5,0x1,0x0                                                                                    
000c32   52e5     MOVF      0xe5,0x1,0x0                                                                                    
000c34   52e5     MOVF      0xe5,0x1,0x0                                                                                    
000c36   52e5     MOVF      0xe5,0x1,0x0                                                                                    
000c38   d0ef     BRA       0xe18          				return;                                                                      C:\Embedded\Joystick\jdict.c
                                           			}                                                                             C:\Embedded\Joystick\jdict.c
000c3a   50d9     MOVF      0xd9,0x0,0x0   			if (toggle != sdobuf.COMMAND.UPLOAD_SEGMT.t)                                  C:\Embedded\Joystick\jdict.c
000c3c   0ffa     ADDLW     0xfa                                                                                            
000c3e   6ee9     MOVWF     0xe9,0x0                                                                                        
000c40   0eff     MOVLW     0xff                                                                                            
000c42   20da     ADDWFC    0xda,0x0,0x0                                                                                    
000c44   6eea     MOVWF     0xea,0x0                                                                                        
000c46   50ef     MOVF      0xef,0x0,0x0                                                                                    
000c48   0b10     ANDLW     0x10                                                                                            
000c4a   e001     BZ        0xc4e                                                                                           
000c4c   0e01     MOVLW     0x1                                                                                             
000c4e   0101     MOVLB     0x1                                                                                             
000c50   5d94     SUBWF     0x94,0x0,0x1                                                                                    
000c52   e00f     BZ        0xc72                                                                                           
                                           			{                                                                             C:\Embedded\Joystick\jdict.c
000c54   0e01     MOVLW     0x1            				Send_SDO_Abort(multiplexor.index, multiplexor.sindex, E_TOGGLE);             C:\Embedded\Joystick\jdict.c
000c56   6ee6     MOVWF     0xe6,0x0                                                                                        
000c58   c188     MOVFF     0x188,0xfe6                                                                                     
000c5a   ffe6                                                                                                               
000c5c   c186     MOVFF     0x186,0xfe6                                                                                     
000c5e   ffe6                                                                                                               
000c60   c187     MOVFF     0x187,0xfe6                                                                                     
000c62   ffe6                                                                                                               
000c64   ec28     CALL      0x1450,0x0                                                                                      
000c66   f00a                                                                                                               
000c68   52e5     MOVF      0xe5,0x1,0x0                                                                                    
000c6a   52e5     MOVF      0xe5,0x1,0x0                                                                                    
000c6c   52e5     MOVF      0xe5,0x1,0x0                                                                                    
000c6e   52e5     MOVF      0xe5,0x1,0x0                                                                                    
000c70   d0d3     BRA       0xe18          				return;                                                                      C:\Embedded\Joystick\jdict.c
                                           			}                                                                             C:\Embedded\Joystick\jdict.c
000c72   0101     MOVLB     0x1            			if ((multiplexor.length - SDO_RX_INDEX) >= 7)                                 C:\Embedded\Joystick\jdict.c
000c74   5193     MOVF      0x93,0x0,0x1                                                                                    
000c76   6e02     MOVWF     0x2,0x0                                                                                         
000c78   6a03     CLRF      0x3,0x0                                                                                         
000c7a   0101     MOVLB     0x1                                                                                             
000c7c   5002     MOVF      0x2,0x0,0x0                                                                                     
000c7e   5d89     SUBWF     0x89,0x0,0x1                                                                                    
000c80   6e00     MOVWF     0x0,0x0                                                                                         
000c82   5003     MOVF      0x3,0x0,0x0                                                                                     
000c84   598a     SUBWFB    0x8a,0x0,0x1                                                                                    
000c86   6e01     MOVWF     0x1,0x0                                                                                         
000c88   0e07     MOVLW     0x7                                                                                             
000c8a   5c00     SUBWF     0x0,0x0,0x0                                                                                     
000c8c   0e00     MOVLW     0x0                                                                                             
000c8e   5801     SUBWFB    0x1,0x0,0x0                                                                                     
000c90   e308     BNC       0xca2                                                                                           
                                           			{                                                                             C:\Embedded\Joystick\jdict.c
000c92   0e09     MOVLW     0x9            				lastseg = FALSE;                                                             C:\Embedded\Joystick\jdict.c
000c94   6adb     CLRF      0xdb,0x0                                                                                        
000c96   0e07     MOVLW     0x7            				numchars = 7;                                                                C:\Embedded\Joystick\jdict.c
000c98   6ef3     MOVWF     0xf3,0x0                                                                                        
000c9a   0e08     MOVLW     0x8                                                                                             
000c9c   cff3     MOVFF     0xff3,0xfdb                                                                                     
000c9e   ffdb                                                                                                               
                                           			}                                                                             C:\Embedded\Joystick\jdict.c
000ca0   d015     BRA       0xccc          			else                                                                          C:\Embedded\Joystick\jdict.c
                                           			{                                                                             C:\Embedded\Joystick\jdict.c
000ca2   0101     MOVLB     0x1            				numchars = multiplexor.length - SDO_RX_INDEX;                                C:\Embedded\Joystick\jdict.c
000ca4   5193     MOVF      0x93,0x0,0x1                                                                                    
000ca6   6e02     MOVWF     0x2,0x0                                                                                         
000ca8   6a03     CLRF      0x3,0x0                                                                                         
000caa   0101     MOVLB     0x1                                                                                             
000cac   5002     MOVF      0x2,0x0,0x0                                                                                     
000cae   5d89     SUBWF     0x89,0x0,0x1                                                                                    
000cb0   6e00     MOVWF     0x0,0x0                                                                                         
000cb2   5003     MOVF      0x3,0x0,0x0                                                                                     
000cb4   598a     SUBWFB    0x8a,0x0,0x1                                                                                    
000cb6   6e01     MOVWF     0x1,0x0                                                                                         
000cb8   0e08     MOVLW     0x8                                                                                             
000cba   c000     MOVFF     0x0,0xfdb                                                                                       
000cbc   ffdb                                                                                                               
000cbe   0e01     MOVLW     0x1            				lastseg = TRUE;                                                              C:\Embedded\Joystick\jdict.c
000cc0   6ef3     MOVWF     0xf3,0x0                                                                                        
000cc2   0e09     MOVLW     0x9                                                                                             
000cc4   cff3     MOVFF     0xff3,0xfdb                                                                                     
000cc6   ffdb                                                                                                               
000cc8   0101     MOVLB     0x1            				SDO_Process = CAN_NOTHING;		//finsihed                                       C:\Embedded\Joystick\jdict.c
000cca   6b92     CLRF      0x92,0x1                                                                                        
                                           			}                                                                             C:\Embedded\Joystick\jdict.c
                                                                                                                            C:\Embedded\Joystick\jdict.c
000ccc   0e08     MOVLW     0x8            			Upload_from_RAM((char *)_null, (char *)&TXB_B [CAN_OPEN_IdSdoTx].D0, 8);      C:\Embedded\Joystick\jdict.c
000cce   6ee6     MOVWF     0xe6,0x0                                                                                        
000cd0   6ae6     CLRF      0xe6,0x0                                                                                        
000cd2   0e12     MOVLW     0x12                                                                                            
000cd4   6ee6     MOVWF     0xe6,0x0                                                                                        
000cd6   0e01     MOVLW     0x1                                                                                             
000cd8   6ee6     MOVWF     0xe6,0x0                                                                                        
000cda   cfd9     MOVFF     0xfd9,0xfe6                                                                                     
000cdc   ffe6                                                                                                               
000cde   cfda     MOVFF     0xfda,0xfe6                                                                                     
000ce0   ffe6                                                                                                               
000ce2   ec96     CALL      0x32c,0x0                                                                                       
000ce4   f001                                                                                                               
000ce6   6e00     MOVWF     0x0,0x0                                                                                         
000ce8   0e06     MOVLW     0x6                                                                                             
000cea   5ee1     SUBWF     0xe1,0x1,0x0                                                                                    
000cec   5000     MOVF      0x0,0x0,0x0                                                                                     
000cee   c188     MOVFF     0x188,0xfe6    			return_code = find_dictionary_entry(multiplexor.index, multiplexor.sindex);   C:\Embedded\Joystick\jdict.c
000cf0   ffe6                                                                                                               
000cf2   c186     MOVFF     0x186,0xfe6                                                                                     
000cf4   ffe6                                                                                                               
000cf6   c187     MOVFF     0x187,0xfe6                                                                                     
000cf8   ffe6                                                                                                               
000cfa   d898     RCALL     0xe2c                                                                                           
000cfc   52e5     MOVF      0xe5,0x1,0x0                                                                                    
000cfe   52e5     MOVF      0xe5,0x1,0x0                                                                                    
000d00   52e5     MOVF      0xe5,0x1,0x0                                                                                    
000d02   6ee7     MOVWF     0xe7,0x0                                                                                        
000d04   0e0a     MOVLW     0xa                                                                                             
000d06   cfe7     MOVFF     0xfe7,0xfdb                                                                                     
000d08   ffdb                                                                                                               
000d0a   c1be     MOVFF     0x1be,0xff6    			if (od_entry->ctl & ROM_BIT)                                                  C:\Embedded\Joystick\jdict.c
000d0c   fff6                                                                                                               
000d0e   c1bf     MOVFF     0x1bf,0xff7                                                                                     
000d10   fff7                                                                                                               
000d12   0e03     MOVLW     0x3                                                                                             
000d14   26f6     ADDWF     0xf6,0x1,0x0                                                                                    
000d16   0e00     MOVLW     0x0                                                                                             
000d18   22f7     ADDWFC    0xf7,0x1,0x0                                                                                    
000d1a   0008     TBLRD                                                                                                     
000d1c   50f5     MOVF      0xf5,0x0,0x0                                                                                    
000d1e   0b04     ANDLW     0x4                                                                                             
000d20   e027     BZ        0xd70                                                                                           
000d22   0e08     MOVLW     0x8            				Upload_from_ROM(od_entry->pROM + SDO_RX_INDEX, (char *)&TXB_B [CAN_OPEN_IdSdoTx].D0, numchars); C:\Embedded\Joystick\jdict.c
000d24   cfdb     MOVFF     0xfdb,0xfe6                                                                                     
000d26   ffe6                                                                                                               
000d28   6ae6     CLRF      0xe6,0x0                                                                                        
000d2a   0e12     MOVLW     0x12                                                                                            
000d2c   6ee6     MOVWF     0xe6,0x0                                                                                        
000d2e   0e01     MOVLW     0x1                                                                                             
000d30   6ee6     MOVWF     0xe6,0x0                                                                                        
000d32   0101     MOVLB     0x1                                                                                             
000d34   5193     MOVF      0x93,0x0,0x1                                                                                    
000d36   6e02     MOVWF     0x2,0x0                                                                                         
000d38   6a03     CLRF      0x3,0x0                                                                                         
000d3a   c1be     MOVFF     0x1be,0xff6                                                                                     
000d3c   fff6                                                                                                               
000d3e   c1bf     MOVFF     0x1bf,0xff7                                                                                     
000d40   fff7                                                                                                               
000d42   0e06     MOVLW     0x6                                                                                             
000d44   26f6     ADDWF     0xf6,0x1,0x0                                                                                    
000d46   0e00     MOVLW     0x0                                                                                             
000d48   22f7     ADDWFC    0xf7,0x1,0x0                                                                                    
000d4a   0009     TBLRDPOSTINC                                                                                              
000d4c   50f5     MOVF      0xf5,0x0,0x0                                                                                    
000d4e   2402     ADDWF     0x2,0x0,0x0                                                                                     
000d50   6e00     MOVWF     0x0,0x0                                                                                         
000d52   0009     TBLRDPOSTINC                                                                                              
000d54   50f5     MOVF      0xf5,0x0,0x0                                                                                    
000d56   2003     ADDWFC    0x3,0x0,0x0                                                                                     
000d58   6e01     MOVWF     0x1,0x0                                                                                         
000d5a   c000     MOVFF     0x0,0xfe6                                                                                       
000d5c   ffe6                                                                                                               
000d5e   c001     MOVFF     0x1,0xfe6                                                                                       
000d60   ffe6                                                                                                               
000d62   ecdd     CALL      0x3ba,0x0                                                                                       
000d64   f001                                                                                                               
000d66   6e04     MOVWF     0x4,0x0                                                                                         
000d68   0e06     MOVLW     0x6                                                                                             
000d6a   5ee1     SUBWF     0xe1,0x1,0x0                                                                                    
000d6c   5004     MOVF      0x4,0x0,0x0                                                                                     
000d6e   d026     BRA       0xdbc          			else                                                                          C:\Embedded\Joystick\jdict.c
000d70   0e08     MOVLW     0x8            				Upload_from_RAM((char *)od_entry->pROM + SDO_RX_INDEX, (char *)&TXB_B [CAN_OPEN_IdSdoTx].D0, numchars); C:\Embedded\Joystick\jdict.c
000d72   cfdb     MOVFF     0xfdb,0xfe6                                                                                     
000d74   ffe6                                                                                                               
000d76   6ae6     CLRF      0xe6,0x0                                                                                        
000d78   0e12     MOVLW     0x12                                                                                            
000d7a   6ee6     MOVWF     0xe6,0x0                                                                                        
000d7c   0e01     MOVLW     0x1                                                                                             
000d7e   6ee6     MOVWF     0xe6,0x0                                                                                        
000d80   0101     MOVLB     0x1                                                                                             
000d82   5193     MOVF      0x93,0x0,0x1                                                                                    
000d84   6e02     MOVWF     0x2,0x0                                                                                         
000d86   6a03     CLRF      0x3,0x0                                                                                         
000d88   c1be     MOVFF     0x1be,0xff6                                                                                     
000d8a   fff6                                                                                                               
000d8c   c1bf     MOVFF     0x1bf,0xff7                                                                                     
000d8e   fff7                                                                                                               
000d90   0e06     MOVLW     0x6                                                                                             
000d92   26f6     ADDWF     0xf6,0x1,0x0                                                                                    
000d94   0e00     MOVLW     0x0                                                                                             
000d96   22f7     ADDWFC    0xf7,0x1,0x0                                                                                    
000d98   0009     TBLRDPOSTINC                                                                                              
000d9a   50f5     MOVF      0xf5,0x0,0x0                                                                                    
000d9c   2402     ADDWF     0x2,0x0,0x0                                                                                     
000d9e   6e00     MOVWF     0x0,0x0                                                                                         
000da0   0009     TBLRDPOSTINC                                                                                              
000da2   50f5     MOVF      0xf5,0x0,0x0                                                                                    
000da4   2003     ADDWFC    0x3,0x0,0x0                                                                                     
000da6   6e01     MOVWF     0x1,0x0                                                                                         
000da8   c000     MOVFF     0x0,0xfe6                                                                                       
000daa   ffe6                                                                                                               
000dac   c001     MOVFF     0x1,0xfe6                                                                                       
000dae   ffe6                                                                                                               
000db0   ec96     CALL      0x32c,0x0                                                                                       
000db2   f001                                                                                                               
000db4   6e04     MOVWF     0x4,0x0                                                                                         
000db6   0e06     MOVLW     0x6                                                                                             
000db8   5ee1     SUBWF     0xe1,0x1,0x0                                                                                    
000dba   5004     MOVF      0x4,0x0,0x0                                                                                     
                                                                                                                            C:\Embedded\Joystick\jdict.c
000dbc   0e07     MOVLW     0x7            			SDO_RX_INDEX += 7;                                                            C:\Embedded\Joystick\jdict.c
000dbe   0101     MOVLB     0x1                                                                                             
000dc0   2793     ADDWF     0x93,0x1,0x1                                                                                    
000dc2   0e09     MOVLW     0x9            			Send_Upload_Segment((7-numchars), toggle, lastseg);                           C:\Embedded\Joystick\jdict.c
000dc4   cfdb     MOVFF     0xfdb,0xfe6                                                                                     
000dc6   ffe6                                                                                                               
000dc8   c194     MOVFF     0x194,0xfe6                                                                                     
000dca   ffe6                                                                                                               
000dcc   0e08     MOVLW     0x8                                                                                             
000dce   cfdb     MOVFF     0xfdb,0xfe6                                                                                     
000dd0   ffe6                                                                                                               
000dd2   0e07     MOVLW     0x7                                                                                             
000dd4   52e5     MOVF      0xe5,0x1,0x0                                                                                    
000dd6   80d8     BSF       0xd8,0x0,0x0                                                                                    
000dd8   54e7     SUBFWB    0xe7,0x0,0x0                                                                                    
000dda   6ee6     MOVWF     0xe6,0x0                                                                                        
000ddc   ec08     CALL      0x1410,0x0                                                                                      
000dde   f00a                                                                                                               
000de0   52e5     MOVF      0xe5,0x1,0x0                                                                                    
000de2   52e5     MOVF      0xe5,0x1,0x0                                                                                    
000de4   52e5     MOVF      0xe5,0x1,0x0                                                                                    
000de6   0101     MOVLB     0x1            			toggle ^= 1;                                                                  C:\Embedded\Joystick\jdict.c
000de8   7194     BTG       0x94,0x0,0x1                                                                                    
000dea   0101     MOVLB     0x1            			z_SDO_timer = INTER_SDO_TIMER;                                                C:\Embedded\Joystick\jdict.c
000dec   0ee8     MOVLW     0xe8                                                                                            
000dee   6fa2     MOVWF     0xa2,0x1                                                                                        
000df0   0e03     MOVLW     0x3                                                                                             
000df2   6fa3     MOVWF     0xa3,0x1                                                                                        
000df4   d011     BRA       0xe18          			break;                                                                        C:\Embedded\Joystick\jdict.c
                                                                                                                            C:\Embedded\Joystick\jdict.c
                                           //-------------------------------------------------------------------------------------------------- C:\Embedded\Joystick\jdict.c
                                           		case CS_SDO_ABORT:                                                             C:\Embedded\Joystick\jdict.c
000df6   0101     MOVLB     0x1            			SDO_Process = CAN_NOTHING;		//abort any on-going action, SERVICE IS UNCONFIRMED C:\Embedded\Joystick\jdict.c
000df8   6b92     CLRF      0x92,0x1                                                                                        
000dfa   d00e     BRA       0xe18          			break;                                                                        C:\Embedded\Joystick\jdict.c
                                                                                                                            C:\Embedded\Joystick\jdict.c
                                           //-------------------------------------------------------------------------------------------------- C:\Embedded\Joystick\jdict.c
                                           		default:                                                                       C:\Embedded\Joystick\jdict.c
                                           				// unsupported access services, mainly BLOCK UP/DOWNLOAD and END UP/DOWN BLOCK C:\Embedded\Joystick\jdict.c
000dfc   0e05     MOVLW     0x5            				Send_SDO_Abort(multiplexor.index, multiplexor.sindex, E_UNSUPP_ACCESS);      C:\Embedded\Joystick\jdict.c
000dfe   6ee6     MOVWF     0xe6,0x0                                                                                        
000e00   c188     MOVFF     0x188,0xfe6                                                                                     
000e02   ffe6                                                                                                               
000e04   c186     MOVFF     0x186,0xfe6                                                                                     
000e06   ffe6                                                                                                               
000e08   c187     MOVFF     0x187,0xfe6                                                                                     
000e0a   ffe6                                                                                                               
000e0c   ec28     CALL      0x1450,0x0                                                                                      
000e0e   f00a                                                                                                               
000e10   52e5     MOVF      0xe5,0x1,0x0                                                                                    
000e12   52e5     MOVF      0xe5,0x1,0x0                                                                                    
000e14   52e5     MOVF      0xe5,0x1,0x0                                                                                    
000e16   52e5     MOVF      0xe5,0x1,0x0                                                                                    
                                           	}                                                                               C:\Embedded\Joystick\jdict.c
                                                                                                                            C:\Embedded\Joystick\jdict.c
000e18   0e0d     MOVLW     0xd            }                                                                                C:\Embedded\Joystick\jdict.c
000e1a   5ce1     SUBWF     0xe1,0x0,0x0                                                                                    
000e1c   e202     BC        0xe22                                                                                           
000e1e   6ae1     CLRF      0xe1,0x0                                                                                        
000e20   52e5     MOVF      0xe5,0x1,0x0                                                                                    
000e22   6ee1     MOVWF     0xe1,0x0                                                                                        
000e24   52e5     MOVF      0xe5,0x1,0x0                                                                                    
000e26   cfe7     MOVFF     0xfe7,0xfd9                                                                                     
000e28   ffd9                                                                                                               
000e2a   0012     RETURN    0x0                                                                                             
                                                                                                                            C:\Embedded\Joystick\jdict.c
                                           //*********************************************************************          C:\Embedded\Joystick\jdict.c
                                           //STRUCTURE OF THE OBJECT DICTIONARY:                                            C:\Embedded\Joystick\jdict.c
                                           //unsig int index; unsig char subindex; unsig char ctl; unsig int len; rom unsigned char * pROM; C:\Embedded\Joystick\jdict.c
                                           //                                                                               C:\Embedded\Joystick\jdict.c
                                           //WARNING: This procedure relies on the fact that entries in the OD are ORDERED  C:\Embedded\Joystick\jdict.c
                                           //********************************************************************/          C:\Embedded\Joystick\jdict.c
000e2c   cfd9     MOVFF     0xfd9,0xfe6    unsigned char find_dictionary_entry(unsigned int i, char s)                      C:\Embedded\Joystick\jdict.c
000e2e   ffe6                                                                                                               
000e30   cfe1     MOVFF     0xfe1,0xfd9                                                                                     
000e32   ffd9                                                                                                               
000e34   0e07     MOVLW     0x7                                                                                             
000e36   26e1     ADDWF     0xe1,0x1,0x0                                                                                    
                                           {                                                                                C:\Embedded\Joystick\jdict.c
                                            rom struct _DICTIONARY_OBJECT_TEMPLATE *q_dop;                                  C:\Embedded\Joystick\jdict.c
                                            REQ_STAT q_cc;                                                                  C:\Embedded\Joystick\jdict.c
                                            unsigned int q_num_objs;                                                        C:\Embedded\Joystick\jdict.c
000e38   0e05     MOVLW     0x5             int q_k=0;                                                                      C:\Embedded\Joystick\jdict.c
000e3a   6adb     CLRF      0xdb,0x0                                                                                        
000e3c   0e06     MOVLW     0x6                                                                                             
000e3e   6adb     CLRF      0xdb,0x0                                                                                        
                                                                                                                            C:\Embedded\Joystick\jdict.c
000e40   0004     CLRWDT                    _asm clrwdt _endasm	//clear wdt before starting the search                      C:\Embedded\Joystick\jdict.c
                                                                                                                            C:\Embedded\Joystick\jdict.c
000e42   0e05     MOVLW     0x5            	q_k = 0;                                                                        C:\Embedded\Joystick\jdict.c
000e44   6adb     CLRF      0xdb,0x0                                                                                        
000e46   0e06     MOVLW     0x6                                                                                             
000e48   6adb     CLRF      0xdb,0x0                                                                                        
000e4a   0e08     MOVLW     0x8             	q_cc = E_OBJ_NOT_FOUND;                                                        C:\Embedded\Joystick\jdict.c
000e4c   6ef3     MOVWF     0xf3,0x0                                                                                        
000e4e   0e02     MOVLW     0x2                                                                                             
000e50   cff3     MOVFF     0xff3,0xfdb                                                                                     
000e52   ffdb                                                                                                               
000e54   0ebf     MOVLW     0xbf           	q_dop = (rom DICT_OBJECT_TEMPLATE *)_db_objects;                                C:\Embedded\Joystick\jdict.c
000e56   6ede     MOVWF     0xde,0x0                                                                                        
000e58   0e23     MOVLW     0x23                                                                                            
000e5a   6edd     MOVWF     0xdd,0x0                                                                                        
000e5c   0e65     MOVLW     0x65           	q_num_objs = sizeof(_db_objects)/sizeof(DICT_OBJECT_TEMPLATE);                  C:\Embedded\Joystick\jdict.c
000e5e   6ef3     MOVWF     0xf3,0x0                                                                                        
000e60   0e03     MOVLW     0x3                                                                                             
000e62   cff3     MOVFF     0xff3,0xfdb                                                                                     
000e64   ffdb                                                                                                               
000e66   0e04     MOVLW     0x4                                                                                             
000e68   6adb     CLRF      0xdb,0x0                                                                                        
                                                                                                                            C:\Embedded\Joystick\jdict.c
                                                                                                                            C:\Embedded\Joystick\jdict.c
                                           /* search for the right index */                                                 C:\Embedded\Joystick\jdict.c
000e6a   cfde     MOVFF     0xfde,0xff6    	while ((q_dop->index <= i) && (q_k < q_num_objs))                               C:\Embedded\Joystick\jdict.c
000e6c   fff6                                                                                                               
000e6e   cfdd     MOVFF     0xfdd,0xff7                                                                                     
000e70   fff7                                                                                                               
000e72   0009     TBLRDPOSTINC                                                                                              
000e74   cff5     MOVFF     0xff5,0x0                                                                                       
000e76   f000                                                                                                               
000e78   0008     TBLRD                                                                                                     
000e7a   cff5     MOVFF     0xff5,0x1                                                                                       
000e7c   f001                                                                                                               
000e7e   0efd     MOVLW     0xfd                                                                                            
000e80   cfdb     MOVFF     0xfdb,0x2                                                                                       
000e82   f002                                                                                                               
000e84   0efe     MOVLW     0xfe                                                                                            
000e86   cfdb     MOVFF     0xfdb,0x3                                                                                       
000e88   f003                                                                                                               
000e8a   5000     MOVF      0x0,0x0,0x0                                                                                     
000e8c   5c02     SUBWF     0x2,0x0,0x0                                                                                     
000e8e   5001     MOVF      0x1,0x0,0x0                                                                                     
000e90   5803     SUBWFB    0x3,0x0,0x0                                                                                     
000e92   e334     BNC       0xefc                                                                                           
000e94   0e05     MOVLW     0x5                                                                                             
000e96   cfdb     MOVFF     0xfdb,0x4                                                                                       
000e98   f004                                                                                                               
000e9a   0e06     MOVLW     0x6                                                                                             
000e9c   cfdb     MOVFF     0xfdb,0x5                                                                                       
000e9e   f005                                                                                                               
000ea0   0e03     MOVLW     0x3                                                                                             
000ea2   cfdb     MOVFF     0xfdb,0x6                                                                                       
000ea4   f006                                                                                                               
000ea6   0e04     MOVLW     0x4                                                                                             
000ea8   cfdb     MOVFF     0xfdb,0x7                                                                                       
000eaa   f007                                                                                                               
000eac   5006     MOVF      0x6,0x0,0x0                                                                                     
000eae   5c04     SUBWF     0x4,0x0,0x0                                                                                     
000eb0   5007     MOVF      0x7,0x0,0x0                                                                                     
000eb2   5805     SUBWFB    0x5,0x0,0x0                                                                                     
000eb4   e223     BC        0xefc                                                                                           
000efa   d7b7     BRA       0xe6a                                                                                           
                                           		{                                                                              C:\Embedded\Joystick\jdict.c
000eb6   cfde     MOVFF     0xfde,0xff6    		if (q_dop->index == i)                                                         C:\Embedded\Joystick\jdict.c
000eb8   fff6                                                                                                               
000eba   cfdd     MOVFF     0xfdd,0xff7                                                                                     
000ebc   fff7                                                                                                               
000ebe   0009     TBLRDPOSTINC                                                                                              
000ec0   cff5     MOVFF     0xff5,0x0                                                                                       
000ec2   f000                                                                                                               
000ec4   0008     TBLRD                                                                                                     
000ec6   cff5     MOVFF     0xff5,0x1                                                                                       
000ec8   f001                                                                                                               
000eca   0efd     MOVLW     0xfd                                                                                            
000ecc   50db     MOVF      0xdb,0x0,0x0                                                                                    
000ece   1800     XORWF     0x0,0x0,0x0                                                                                     
000ed0   e103     BNZ       0xed8                                                                                           
000ed2   0efe     MOVLW     0xfe                                                                                            
000ed4   50db     MOVF      0xdb,0x0,0x0                                                                                    
000ed6   1801     XORWF     0x1,0x0,0x0                                                                                     
000ed8   e103     BNZ       0xee0                                                                                           
                                           			{                                                                             C:\Embedded\Joystick\jdict.c
000eda   0e02     MOVLW     0x2            			q_cc = E_SUCCESS;                                                             C:\Embedded\Joystick\jdict.c
000edc   6adb     CLRF      0xdb,0x0                                                                                        
000ede   d00e     BRA       0xefc          			break;                                                                        C:\Embedded\Joystick\jdict.c
                                           			}                                                                             C:\Embedded\Joystick\jdict.c
000ee0   cfd9     MOVFF     0xfd9,0xfe9    		q_dop++;		//points to the next element of the OD                               C:\Embedded\Joystick\jdict.c
000ee2   ffe9                                                                                                               
000ee4   cfda     MOVFF     0xfda,0xfea                                                                                     
000ee6   ffea                                                                                                               
000ee8   0e08     MOVLW     0x8                                                                                             
000eea   26ee     ADDWF     0xee,0x1,0x0                                                                                    
000eec   0e00     MOVLW     0x0                                                                                             
000eee   22ef     ADDWFC    0xef,0x1,0x0                                                                                    
000ef0   0e05     MOVLW     0x5            		q_k++;	                                                                        C:\Embedded\Joystick\jdict.c
000ef2   2adb     INCF      0xdb,0x1,0x0                                                                                    
000ef4   0e06     MOVLW     0x6                                                                                             
000ef6   e301     BNC       0xefa                                                                                           
000ef8   2adb     INCF      0xdb,0x1,0x0                                                                                    
                                           		}                                                                              C:\Embedded\Joystick\jdict.c
                                                                                                                            C:\Embedded\Joystick\jdict.c
                                           /* search for the right subindex */                                              C:\Embedded\Joystick\jdict.c
000efc   0e02     MOVLW     0x2            	if (q_cc == E_SUCCESS)		/* an object with the correct index has been found */   C:\Embedded\Joystick\jdict.c
000efe   50db     MOVF      0xdb,0x0,0x0                                                                                    
000f00   e166     BNZ       0xfce                                                                                           
                                           		{                                                                              C:\Embedded\Joystick\jdict.c
000f02   0e11     MOVLW     0x11           	 	q_cc = E_SUBINDEX_NOT_FOUND;                                                  C:\Embedded\Joystick\jdict.c
000f04   6ef3     MOVWF     0xf3,0x0                                                                                        
000f06   0e02     MOVLW     0x2                                                                                             
000f08   cff3     MOVFF     0xff3,0xfdb                                                                                     
000f0a   ffdb                                                                                                               
000f0c   cfde     MOVFF     0xfde,0xff6    		while ((q_dop->index == i) && (q_dop->subindex < s)) q_dop++;                  C:\Embedded\Joystick\jdict.c
000f0e   fff6                                                                                                               
000f10   cfdd     MOVFF     0xfdd,0xff7                                                                                     
000f12   fff7                                                                                                               
000f14   0009     TBLRDPOSTINC                                                                                              
000f16   cff5     MOVFF     0xff5,0x0                                                                                       
000f18   f000                                                                                                               
000f1a   0008     TBLRD                                                                                                     
000f1c   cff5     MOVFF     0xff5,0x1                                                                                       
000f1e   f001                                                                                                               
000f20   0efd     MOVLW     0xfd                                                                                            
000f22   50db     MOVF      0xdb,0x0,0x0                                                                                    
000f24   1800     XORWF     0x0,0x0,0x0                                                                                     
000f26   e103     BNZ       0xf2e                                                                                           
000f28   0efe     MOVLW     0xfe                                                                                            
000f2a   50db     MOVF      0xdb,0x0,0x0                                                                                    
000f2c   1801     XORWF     0x1,0x0,0x0                                                                                     
000f2e   e118     BNZ       0xf60                                                                                           
000f30   cfde     MOVFF     0xfde,0xff6                                                                                     
000f32   fff6                                                                                                               
000f34   cfdd     MOVFF     0xfdd,0xff7                                                                                     
000f36   fff7                                                                                                               
000f38   0e02     MOVLW     0x2                                                                                             
000f3a   26f6     ADDWF     0xf6,0x1,0x0                                                                                    
000f3c   0e00     MOVLW     0x0                                                                                             
000f3e   22f7     ADDWFC    0xf7,0x1,0x0                                                                                    
000f40   0008     TBLRD                                                                                                     
000f42   cff5     MOVFF     0xff5,0x2                                                                                       
000f44   f002                                                                                                               
000f46   0efc     MOVLW     0xfc                                                                                            
000f48   50db     MOVF      0xdb,0x0,0x0                                                                                    
000f4a   5c02     SUBWF     0x2,0x0,0x0                                                                                     
000f4c   e209     BC        0xf60                                                                                           
000f4e   cfd9     MOVFF     0xfd9,0xfe9                                                                                     
000f50   ffe9                                                                                                               
000f52   cfda     MOVFF     0xfda,0xfea                                                                                     
000f54   ffea                                                                                                               
000f56   0e08     MOVLW     0x8                                                                                             
000f58   26ee     ADDWF     0xee,0x1,0x0                                                                                    
000f5a   0e00     MOVLW     0x0                                                                                             
000f5c   22ef     ADDWFC    0xef,0x1,0x0                                                                                    
000f5e   d7d6     BRA       0xf0c                                                                                           
000f60   cfde     MOVFF     0xfde,0xff6    		q_k=q_dop->subindex;                                                           C:\Embedded\Joystick\jdict.c
000f62   fff6                                                                                                               
000f64   cfdd     MOVFF     0xfdd,0xff7                                                                                     
000f66   fff7                                                                                                               
000f68   0e02     MOVLW     0x2                                                                                             
000f6a   26f6     ADDWF     0xf6,0x1,0x0                                                                                    
000f6c   0e00     MOVLW     0x0                                                                                             
000f6e   22f7     ADDWFC    0xf7,0x1,0x0                                                                                    
000f70   0008     TBLRD                                                                                                     
000f72   50f5     MOVF      0xf5,0x0,0x0                                                                                    
000f74   6ee6     MOVWF     0xe6,0x0                                                                                        
000f76   50d9     MOVF      0xd9,0x0,0x0                                                                                    
000f78   0f05     ADDLW     0x5                                                                                             
000f7a   6ee9     MOVWF     0xe9,0x0                                                                                        
000f7c   cfda     MOVFF     0xfda,0xfea                                                                                     
000f7e   ffea                                                                                                               
000f80   52e5     MOVF      0xe5,0x1,0x0                                                                                    
000f82   50e7     MOVF      0xe7,0x0,0x0                                                                                    
000f84   6eee     MOVWF     0xee,0x0                                                                                        
000f86   6aed     CLRF      0xed,0x0                                                                                        
000f88   cfde     MOVFF     0xfde,0xff6    		if ((q_dop->index == i) && (q_dop->subindex == s))	q_cc = E_SUCCESS;           C:\Embedded\Joystick\jdict.c
000f8a   fff6                                                                                                               
000f8c   cfdd     MOVFF     0xfdd,0xff7                                                                                     
000f8e   fff7                                                                                                               
000f90   0009     TBLRDPOSTINC                                                                                              
000f92   cff5     MOVFF     0xff5,0x0                                                                                       
000f94   f000                                                                                                               
000f96   0008     TBLRD                                                                                                     
000f98   cff5     MOVFF     0xff5,0x1                                                                                       
000f9a   f001                                                                                                               
000f9c   0efd     MOVLW     0xfd                                                                                            
000f9e   50db     MOVF      0xdb,0x0,0x0                                                                                    
000fa0   1800     XORWF     0x0,0x0,0x0                                                                                     
000fa2   e103     BNZ       0xfaa                                                                                           
000fa4   0efe     MOVLW     0xfe                                                                                            
000fa6   50db     MOVF      0xdb,0x0,0x0                                                                                    
000fa8   1801     XORWF     0x1,0x0,0x0                                                                                     
000faa   e111     BNZ       0xfce                                                                                           
000fac   cfde     MOVFF     0xfde,0xff6                                                                                     
000fae   fff6                                                                                                               
000fb0   cfdd     MOVFF     0xfdd,0xff7                                                                                     
000fb2   fff7                                                                                                               
000fb4   0e02     MOVLW     0x2                                                                                             
000fb6   26f6     ADDWF     0xf6,0x1,0x0                                                                                    
000fb8   0e00     MOVLW     0x0                                                                                             
000fba   22f7     ADDWFC    0xf7,0x1,0x0                                                                                    
000fbc   0008     TBLRD                                                                                                     
000fbe   cff5     MOVFF     0xff5,0x2                                                                                       
000fc0   f002                                                                                                               
000fc2   0efc     MOVLW     0xfc                                                                                            
000fc4   50db     MOVF      0xdb,0x0,0x0                                                                                    
000fc6   5c02     SUBWF     0x2,0x0,0x0                                                                                     
000fc8   e102     BNZ       0xfce                                                                                           
000fca   0e02     MOVLW     0x2                                                                                             
000fcc   6adb     CLRF      0xdb,0x0                                                                                        
                                           		}                                                                              C:\Embedded\Joystick\jdict.c
                                                                                                                            C:\Embedded\Joystick\jdict.c
000fce   0e02     MOVLW     0x2            	if (q_cc == E_SUCCESS)		/* index and subindex found, now read or write the data using the ptr */ C:\Embedded\Joystick\jdict.c
000fd0   50db     MOVF      0xdb,0x0,0x0                                                                                    
000fd2   e104     BNZ       0xfdc                                                                                           
000fd4   cfde     MOVFF     0xfde,0x1be    		od_entry = q_dop;                                                              C:\Embedded\Joystick\jdict.c
000fd6   f1be                                                                                                               
000fd8   cfdd     MOVFF     0xfdd,0x1bf                                                                                     
000fda   f1bf                                                                                                               
                                                                                                                            C:\Embedded\Joystick\jdict.c
000fdc   0e02     MOVLW     0x2            	return ((unsigned char)q_cc);                                                   C:\Embedded\Joystick\jdict.c
000fde   50db     MOVF      0xdb,0x0,0x0                                                                                    
000fe0   d000     BRA       0xfe2                                                                                           
                                                                                                                            C:\Embedded\Joystick\jdict.c
000fe2   6e00     MOVWF     0x0,0x0        }                                                                                C:\Embedded\Joystick\jdict.c
000fe4   0e07     MOVLW     0x7                                                                                             
000fe6   5ce1     SUBWF     0xe1,0x0,0x0                                                                                    
000fe8   e202     BC        0xfee                                                                                           
000fea   6ae1     CLRF      0xe1,0x0                                                                                        
000fec   52e5     MOVF      0xe5,0x1,0x0                                                                                    
000fee   6ee1     MOVWF     0xe1,0x0                                                                                        
000ff0   5000     MOVF      0x0,0x0,0x0                                                                                     
000ff2   52e5     MOVF      0xe5,0x1,0x0                                                                                    
000ff4   cfe7     MOVFF     0xfe7,0xfd9                                                                                     
000ff6   ffd9                                                                                                               
000ff8   0012     RETURN    0x0                                                                                             
                                           // Programmer: Gino Isla for Lambda Sistemi, Milano                              C:\Embedded\Joystick\jinit.c
                                           // Intialiazation procedures for a CANOpen node                                  C:\Embedded\Joystick\jinit.c
                                           // Created: 06-06-2004                                                           C:\Embedded\Joystick\jinit.c
                                           //                                                                               C:\Embedded\Joystick\jinit.c
                                                                                                                            C:\Embedded\Joystick\jinit.c
                                           #include "jpic_include.h"		/* include correct symbols for this processor */      C:\Embedded\Joystick\jinit.c
                                           #include "jprototype.h"                                                          C:\Embedded\Joystick\jinit.c
                                           #include "japplication_data.h"                                                   C:\Embedded\Joystick\jinit.c
                                           #include "jcan.h"                                                                C:\Embedded\Joystick\jinit.c
                                           #include "jProfile_data.h"                                                       C:\Embedded\Joystick\jinit.c
                                           #include "jRT_INIT.h"                                                            C:\Embedded\Joystick\jinit.c
                                                                                                                            C:\Embedded\Joystick\jinit.c
                                           /* ------------------------------------------- Globals -------------- */         C:\Embedded\Joystick\jinit.c
                                           extern M_TXB_BUFF TXB_B[MAX_CAN_OUT];                                            C:\Embedded\Joystick\jinit.c
                                           extern M_TXB_BUFF RXB_B[MAX_CAN_IN];                                             C:\Embedded\Joystick\jinit.c
                                                                                                                            C:\Embedded\Joystick\jinit.c
                                           extern char StatoUnita;                                                          C:\Embedded\Joystick\jinit.c
                                           extern unsigned int Id;                                                          C:\Embedded\Joystick\jinit.c
                                           extern M_HEARTBEAT heartbeat_count;                                              C:\Embedded\Joystick\jinit.c
                                           extern M_HEARTBEAT heartbeat_rate;                                               C:\Embedded\Joystick\jinit.c
                                           extern unsigned int sendPDO_count;                                               C:\Embedded\Joystick\jinit.c
                                           extern M_TIMER_1_CONVERT T1;                                                     C:\Embedded\Joystick\jinit.c
                                           extern M_LONGID Id_p;                                                            C:\Embedded\Joystick\jinit.c
                                           M_LONG_TO_ARRAY lta;                                                             C:\Embedded\Joystick\jinit.c
                                           extern M_ERROR_REGISTER uCO_DevErrReg;                                           C:\Embedded\Joystick\jinit.c
                                           extern M_ERROR_CODE ERROR_CODE;                                                  C:\Embedded\Joystick\jinit.c
                                           extern unsigned int uCO_COMM_NMTE_HeartBeat;	//DO 1017,0                         C:\Embedded\Joystick\jinit.c
                                           extern M_PDO_ENABLE PDO_enable;                                                  C:\Embedded\Joystick\jinit.c
                                                                                                                            C:\Embedded\Joystick\jinit.c
                                           extern unsigned int Index;                                                       C:\Embedded\Joystick\jinit.c
                                           extern unsigned char SubIndex;                                                   C:\Embedded\Joystick\jinit.c
                                           extern unsigned char SDO_Process;                                                C:\Embedded\Joystick\jinit.c
                                           extern unsigned char toggle;                                                     C:\Embedded\Joystick\jinit.c
                                           extern unsigned char z_number_of_nodes;		//2000,0 number of receiver nodes for potentiometer values C:\Embedded\Joystick\jinit.c
                                           extern unsigned char z_sw_node;				//2000,1 receiver of jIO_switch1_value        C:\Embedded\Joystick\jinit.c
                                           extern unsigned char z_node_1;				//2000,2 receiver of jIO_Potentiometer_1 value C:\Embedded\Joystick\jinit.c
                                           extern unsigned char z_node_2;				//2000,3 receiver of jIO_Potentiometer_2 value C:\Embedded\Joystick\jinit.c
                                           extern unsigned char z_node_3;				//2000,4 receiver of jIO_Potentiometer_3 value C:\Embedded\Joystick\jinit.c
                                           extern unsigned char z_node_4;				//2000,5 receiver of jIO_Potentiometer_4 value C:\Embedded\Joystick\jinit.c
                                           extern unsigned char next_PDO;                                                   C:\Embedded\Joystick\jinit.c
                                           extern unsigned char z_master;				//master or slave indication                   C:\Embedded\Joystick\jinit.c
                                           extern unsigned char z_master_initializing;	//initializing process               C:\Embedded\Joystick\jinit.c
                                           extern unsigned char z_slave_count;                                              C:\Embedded\Joystick\jinit.c
                                           extern unsigned char next_PDO;                                                   C:\Embedded\Joystick\jinit.c
                                           extern unsigned char ultimo_out;                                                 C:\Embedded\Joystick\jinit.c
                                                                                                                            C:\Embedded\Joystick\jinit.c
                                           //-------------------------------                                                C:\Embedded\Joystick\jinit.c
                                                                                                                            C:\Embedded\Joystick\jinit.c
                                           extern rom unsigned char rCO_DevIdentityIndx;                                    C:\Embedded\Joystick\jinit.c
                                           extern unsigned long rCO_DevVendorID;                                            C:\Embedded\Joystick\jinit.c
                                           extern unsigned long rCO_DevProductCode;                                         C:\Embedded\Joystick\jinit.c
                                           extern unsigned long rCO_DevRevNo;                                               C:\Embedded\Joystick\jinit.c
                                           extern unsigned long rCO_DevSerialNo;                                            C:\Embedded\Joystick\jinit.c
                                           //                                                                               C:\Embedded\Joystick\jinit.c
                                           extern unsigned char SDO_RX_HOLD_DATA[128];                                      C:\Embedded\Joystick\jinit.c
                                                                                                                            C:\Embedded\Joystick\jinit.c
                                           char    RXB_B_BTXBD0;                                                            C:\Embedded\Joystick\jinit.c
                                           char    RXB_B_BTXBD1;                                                            C:\Embedded\Joystick\jinit.c
                                           char    RXB_B_BTXBD2;                                                            C:\Embedded\Joystick\jinit.c
                                           char    RXB_B_BTXBD3;                                                            C:\Embedded\Joystick\jinit.c
                                           char    RXB_B_BTXBD4;                                                            C:\Embedded\Joystick\jinit.c
                                           char    RXB_B_BTXBD5;                                                            C:\Embedded\Joystick\jinit.c
                                           char    RXB_B_BTXBD6;                                                            C:\Embedded\Joystick\jinit.c
                                           char    RXB_B_BTXBD7;                                                            C:\Embedded\Joystick\jinit.c
                                           char    RXB_B_BST_BR_R;                                                          C:\Embedded\Joystick\jinit.c
                                           char    RXB_B_BTXBSIDL;                                                          C:\Embedded\Joystick\jinit.c
                                           char    RXB_B_BTXBSIDH;                                                          C:\Embedded\Joystick\jinit.c
                                           char    RXB_B_BTXBDLC;                                                           C:\Embedded\Joystick\jinit.c
                                                                                                                            C:\Embedded\Joystick\jinit.c
                                           // default parameters                                                            C:\Embedded\Joystick\jinit.c
                                           #pragma romdata eeprom=0xF00000                                                  C:\Embedded\Joystick\jinit.c
                                           //const rom char init_pars []= {4,2,3,0xE8,0,3};                                 C:\Embedded\Joystick\jinit.c
                                           const rom char node_id = 127;                                                    C:\Embedded\Joystick\jinit.c
                                           const rom char baud = 2;                                                         C:\Embedded\Joystick\jinit.c
                                           const rom char heartbit_rate[] = {0xE8,4};                                       C:\Embedded\Joystick\jinit.c
                                           const rom char sync_time = 0; //not used                                         C:\Embedded\Joystick\jinit.c
                                           const rom char debounce = 3;                                                     C:\Embedded\Joystick\jinit.c
                                                                                                                            C:\Embedded\Joystick\jinit.c
                                           //EE data accessible through Object Dictionary:                                  C:\Embedded\Joystick\jinit.c
                                           const rom char vendor_id []={0x12,0x34,0x56,0x78};                               C:\Embedded\Joystick\jinit.c
                                           const rom char prod_code [] = {0x12,0x34,0x56,0x78};                             C:\Embedded\Joystick\jinit.c
                                           const rom char rev_num [] = {0,0,0,1};                                           C:\Embedded\Joystick\jinit.c
                                           const rom char serial [] = {1,2,3,4};                                            C:\Embedded\Joystick\jinit.c
                                           const rom char num_nodes = 5;		//offset 22                                       C:\Embedded\Joystick\jinit.c
                                           const rom char switches = 1;                                                     C:\Embedded\Joystick\jinit.c
                                           const rom char pot1 = 2;                                                         C:\Embedded\Joystick\jinit.c
                                           const rom char pot2 = 3;                                                         C:\Embedded\Joystick\jinit.c
                                           const rom char pot3 = 4;                                                         C:\Embedded\Joystick\jinit.c
                                           const rom char pot4 = 5;                                                         C:\Embedded\Joystick\jinit.c
                                           const rom char pdo_rate[] = {0xE8,3};                                            C:\Embedded\Joystick\jinit.c
                                           #pragma romdata                                                                  C:\Embedded\Joystick\jinit.c
                                           		                                                                               C:\Embedded\Joystick\jinit.c
                                           //#pragma interrupt InterruptRxCAN save=PROD,section(".tmpdata") gi: redundant in MPLAB 7.40 C:\Embedded\Joystick\jinit.c
                                           #pragma interrupt InterruptRxCAN                                                 C:\Embedded\Joystick\jinit.c
                                                                                                                            C:\Embedded\Joystick\jinit.c
                                           #pragma code isrcode=0x0008                                                      C:\Embedded\Joystick\jinit.c
                                           void InterruptHandler(void)                                                      C:\Embedded\Joystick\jinit.c
                                           {                                                                                C:\Embedded\Joystick\jinit.c
000008   ef49     GOTO      0x1a92          _asm   goto InterruptRxCAN   _endasm                                            C:\Embedded\Joystick\jinit.c
00000a   f00d                                                                                                               
00000c   0012     RETURN    0x0            }                                                                                C:\Embedded\Joystick\jinit.c
                                                                                                                            C:\Embedded\Joystick\jinit.c
                                           #pragma code                                                                     C:\Embedded\Joystick\jinit.c
                                                                                                                            C:\Embedded\Joystick\jinit.c
                                                                                                                            C:\Embedded\Joystick\jinit.c
                                           //***************************************************//                          C:\Embedded\Joystick\jinit.c
                                           // Gestione recezione messaggio CAN                                              C:\Embedded\Joystick\jinit.c
                                           //***************************************************//                          C:\Embedded\Joystick\jinit.c
001a92   cfda     MOVFF     0xfda,0xfe4    void InterruptRxCAN(void)                                                        C:\Embedded\Joystick\jinit.c
001a94   ffe4                                                                                                               
001a96   cfe2     MOVFF     0xfe2,0xfda                                                                                     
001a98   ffda                                                                                                               
001a9a   cfe9     MOVFF     0xfe9,0xfe4                                                                                     
001a9c   ffe4                                                                                                               
001a9e   cfea     MOVFF     0xfea,0xfe4                                                                                     
001aa0   ffe4                                                                                                               
001aa2   cff3     MOVFF     0xff3,0xfe4                                                                                     
001aa4   ffe4                                                                                                               
001aa6   cff4     MOVFF     0xff4,0xfe4                                                                                     
001aa8   ffe4                                                                                                               
001aaa   52e6     MOVF      0xe6,0x1,0x0                                                                                    
001aac   cfd9     MOVFF     0xfd9,0xfe6                                                                                     
001aae   ffe6                                                                                                               
001ab0   cfe1     MOVFF     0xfe1,0xfd9                                                                                     
001ab2   ffd9                                                                                                               
001ab4   0e03     MOVLW     0x3                                                                                             
001ab6   26e1     ADDWF     0xe1,0x1,0x0                                                                                    
                                           {                                                                                C:\Embedded\Joystick\jinit.c
                                            char i;                                                                         C:\Embedded\Joystick\jinit.c
                                            char TempCANSTAT,TempCANCON;                                                    C:\Embedded\Joystick\jinit.c
                                                                                                                            C:\Embedded\Joystick\jinit.c
                                           // Get CAN message                                                               C:\Embedded\Joystick\jinit.c
001ab8   0e01     MOVLW     0x1                TempCANSTAT = CANSTAT;                                                       C:\Embedded\Joystick\jinit.c
001aba   cf6e     MOVFF     0xf6e,0xfdb                                                                                     
001abc   ffdb                                                                                                               
001abe   0e02     MOVLW     0x2                TempCANCON = CANCON;                                                         C:\Embedded\Joystick\jinit.c
001ac0   cf6f     MOVFF     0xf6f,0xfdb                                                                                     
001ac2   ffdb                                                                                                               
                                                                                                                            C:\Embedded\Joystick\jinit.c
001ac4   ae60     BTFSS     0x60,0x7,0x0       if (RXB0CONbits.RXFUL)                                                       C:\Embedded\Joystick\jinit.c
001ac6   d01f     BRA       0x1b06                                                                                          
                                               {                                                                            C:\Embedded\Joystick\jinit.c
001ac8   cf66     MOVFF     0xf66,0x1da         RXB_B_BTXBD0 = RXB0D0;                                                      C:\Embedded\Joystick\jinit.c
001aca   f1da                                                                                                               
001acc   cf67     MOVFF     0xf67,0x1db         RXB_B_BTXBD1 = RXB0D1;                                                      C:\Embedded\Joystick\jinit.c
001ace   f1db                                                                                                               
001ad0   cf68     MOVFF     0xf68,0x1dc         RXB_B_BTXBD2 = RXB0D2;                                                      C:\Embedded\Joystick\jinit.c
001ad2   f1dc                                                                                                               
001ad4   cf69     MOVFF     0xf69,0x1dd         RXB_B_BTXBD3 = RXB0D3;                                                      C:\Embedded\Joystick\jinit.c
001ad6   f1dd                                                                                                               
001ad8   cf6a     MOVFF     0xf6a,0x1de         RXB_B_BTXBD4 = RXB0D4;                                                      C:\Embedded\Joystick\jinit.c
001ada   f1de                                                                                                               
001adc   cf6b     MOVFF     0xf6b,0x1df         RXB_B_BTXBD5 = RXB0D5;                                                      C:\Embedded\Joystick\jinit.c
001ade   f1df                                                                                                               
001ae0   cf6c     MOVFF     0xf6c,0x1e0         RXB_B_BTXBD6 = RXB0D6;                                                      C:\Embedded\Joystick\jinit.c
001ae2   f1e0                                                                                                               
001ae4   cf6d     MOVFF     0xf6d,0x1e1         RXB_B_BTXBD7 = RXB0D7;                                                      C:\Embedded\Joystick\jinit.c
001ae6   f1e1                                                                                                               
001ae8   5060     MOVF      0x60,0x0,0x0        RXB_B_BST_BR_R = RXB0CONbits.RXRTRRO;                                       C:\Embedded\Joystick\jinit.c
001aea   0b08     ANDLW     0x8                                                                                             
001aec   e001     BZ        0x1af0                                                                                          
001aee   0e01     MOVLW     0x1                                                                                             
001af0   0101     MOVLB     0x1                                                                                             
001af2   6fe2     MOVWF     0xe2,0x1                                                                                        
001af4   cf62     MOVFF     0xf62,0x1e3         RXB_B_BTXBSIDL = RXB0SIDL;                                                  C:\Embedded\Joystick\jinit.c
001af6   f1e3                                                                                                               
001af8   cf61     MOVFF     0xf61,0x1e4         RXB_B_BTXBSIDH = RXB0SIDH;                                                  C:\Embedded\Joystick\jinit.c
001afa   f1e4                                                                                                               
001afc   cf65     MOVFF     0xf65,0x1e5    	 RXB_B_BTXBDLC = RXB0DLC;                                                       C:\Embedded\Joystick\jinit.c
001afe   f1e5                                                                                                               
001b00   9e60     BCF       0x60,0x7,0x0        RXB0CONbits.RXFUL = 0;                                                      C:\Embedded\Joystick\jinit.c
001b02   90a4     BCF       0xa4,0x0,0x0        PIR3bits.RXB0IF = 0;                                                        C:\Embedded\Joystick\jinit.c
                                               }                                                                            C:\Embedded\Joystick\jinit.c
001b04   d020     BRA       0x1b46            else                                                                          C:\Embedded\Joystick\jinit.c
                                               {                                                                            C:\Embedded\Joystick\jinit.c
001b06   cf56     MOVFF     0xf56,0x1da         RXB_B_BTXBD0 = RXB1D0;                                                      C:\Embedded\Joystick\jinit.c
001b08   f1da                                                                                                               
001b0a   cf57     MOVFF     0xf57,0x1db         RXB_B_BTXBD1 = RXB1D1;                                                      C:\Embedded\Joystick\jinit.c
001b0c   f1db                                                                                                               
001b0e   cf58     MOVFF     0xf58,0x1dc         RXB_B_BTXBD2 = RXB1D2;                                                      C:\Embedded\Joystick\jinit.c
001b10   f1dc                                                                                                               
001b12   cf59     MOVFF     0xf59,0x1dd         RXB_B_BTXBD3 = RXB1D3;                                                      C:\Embedded\Joystick\jinit.c
001b14   f1dd                                                                                                               
001b16   cf5a     MOVFF     0xf5a,0x1de         RXB_B_BTXBD4 = RXB1D4;                                                      C:\Embedded\Joystick\jinit.c
001b18   f1de                                                                                                               
001b1a   cf5b     MOVFF     0xf5b,0x1df         RXB_B_BTXBD5 = RXB1D5;                                                      C:\Embedded\Joystick\jinit.c
001b1c   f1df                                                                                                               
001b1e   cf5c     MOVFF     0xf5c,0x1e0         RXB_B_BTXBD6 = RXB1D6;                                                      C:\Embedded\Joystick\jinit.c
001b20   f1e0                                                                                                               
001b22   cf5d     MOVFF     0xf5d,0x1e1         RXB_B_BTXBD7 = RXB1D7;                                                      C:\Embedded\Joystick\jinit.c
001b24   f1e1                                                                                                               
001b26   010f     MOVLB     0xf                 RXB_B_BST_BR_R = RXB1CONbits.RXRTRRO;                                       C:\Embedded\Joystick\jinit.c
001b28   5150     MOVF      0x50,0x0,0x1                                                                                    
001b2a   0b08     ANDLW     0x8                                                                                             
001b2c   e001     BZ        0x1b30                                                                                          
001b2e   0e01     MOVLW     0x1                                                                                             
001b30   0101     MOVLB     0x1                                                                                             
001b32   6fe2     MOVWF     0xe2,0x1                                                                                        
001b34   cf52     MOVFF     0xf52,0x1e3         RXB_B_BTXBSIDL = RXB1SIDL;                                                  C:\Embedded\Joystick\jinit.c
001b36   f1e3                                                                                                               
001b38   cf51     MOVFF     0xf51,0x1e4         RXB_B_BTXBSIDH = RXB1SIDH;                                                  C:\Embedded\Joystick\jinit.c
001b3a   f1e4                                                                                                               
001b3c   cf55     MOVFF     0xf55,0x1e5    	 RXB_B_BTXBDLC = RXB1DLC;                                                       C:\Embedded\Joystick\jinit.c
001b3e   f1e5                                                                                                               
001b40   010f     MOVLB     0xf                 RXB1CONbits.RXFUL = 0;                                                      C:\Embedded\Joystick\jinit.c
001b42   9f50     BCF       0x50,0x7,0x1                                                                                    
001b44   92a4     BCF       0xa4,0x1,0x0        PIR3bits.RXB1IF = 0;                                                        C:\Embedded\Joystick\jinit.c
                                               }                                                                            C:\Embedded\Joystick\jinit.c
                                                                                                                            C:\Embedded\Joystick\jinit.c
                                              // Find the type of message received and store it                             C:\Embedded\Joystick\jinit.c
001b46   6adf     CLRF      0xdf,0x0          for (i = 0 ; i < CAN_OPEN_RX_END ; i++)                                       C:\Embedded\Joystick\jinit.c
001b48   cfdf     MOVFF     0xfdf,0xa                                                                                       
001b4a   f00a                                                                                                               
001b4c   0e05     MOVLW     0x5                                                                                             
001b4e   6ee7     MOVWF     0xe7,0x0                                                                                        
001b50   180a     XORWF     0xa,0x0,0x0                                                                                     
001b52   aee8     BTFSS     0xe8,0x7,0x0                                                                                    
001b54   d002     BRA       0x1b5a                                                                                          
001b56   34e7     RLCF      0xe7,0x0,0x0                                                                                    
001b58   d002     BRA       0x1b5e                                                                                          
001b5a   50e7     MOVF      0xe7,0x0,0x0                                                                                    
001b5c   5c0a     SUBWF     0xa,0x0,0x0                                                                                     
001b5e   e301     BNC       0x1b62                                                                                          
001b60   d144     BRA       0x1dea                                                                                          
001de6   2adf     INCF      0xdf,0x1,0x0                                                                                    
001de8   d6af     BRA       0x1b48                                                                                          
                                               {                                                                            C:\Embedded\Joystick\jinit.c
001b62   cfdf     MOVFF     0xfdf,0xfe9         if ( RXB_B [i].TXBSIDL == RXB_B_BTXBSIDL && RXB_B [i].TXBSIDH == RXB_B_BTXBSIDH ) C:\Embedded\Joystick\jinit.c
001b64   ffe9                                                                                                               
001b66   6aea     CLRF      0xea,0x0                                                                                        
001b68   bee9     BTFSC     0xe9,0x7,0x0                                                                                    
001b6a   68ea     SETF      0xea,0x0                                                                                        
001b6c   0e0c     MOVLW     0xc                                                                                             
001b6e   02ea     MULWF     0xea,0x0                                                                                        
001b70   cff3     MOVFF     0xff3,0xfea                                                                                     
001b72   ffea                                                                                                               
001b74   02e9     MULWF     0xe9,0x0                                                                                        
001b76   cff3     MOVFF     0xff3,0xfe9                                                                                     
001b78   ffe9                                                                                                               
001b7a   50f4     MOVF      0xf4,0x0,0x0                                                                                    
001b7c   26ea     ADDWF     0xea,0x1,0x0                                                                                    
001b7e   0e3c     MOVLW     0x3c                                                                                            
001b80   26e9     ADDWF     0xe9,0x1,0x0                                                                                    
001b82   0e01     MOVLW     0x1                                                                                             
001b84   22ea     ADDWFC    0xea,0x1,0x0                                                                                    
001b86   0e09     MOVLW     0x9                                                                                             
001b88   26e9     ADDWF     0xe9,0x1,0x0                                                                                    
001b8a   0e00     MOVLW     0x0                                                                                             
001b8c   22ea     ADDWFC    0xea,0x1,0x0                                                                                    
001b8e   50ef     MOVF      0xef,0x0,0x0                                                                                    
001b90   0101     MOVLB     0x1                                                                                             
001b92   5de3     SUBWF     0xe3,0x0,0x1                                                                                    
001b94   e001     BZ        0x1b98                                                                                          
001b96   d127     BRA       0x1de6                                                                                          
001b98   cfdf     MOVFF     0xfdf,0xfe9                                                                                     
001b9a   ffe9                                                                                                               
001b9c   6aea     CLRF      0xea,0x0                                                                                        
001b9e   bee9     BTFSC     0xe9,0x7,0x0                                                                                    
001ba0   68ea     SETF      0xea,0x0                                                                                        
001ba2   0e0c     MOVLW     0xc                                                                                             
001ba4   02ea     MULWF     0xea,0x0                                                                                        
001ba6   cff3     MOVFF     0xff3,0xfea                                                                                     
001ba8   ffea                                                                                                               
001baa   02e9     MULWF     0xe9,0x0                                                                                        
001bac   cff3     MOVFF     0xff3,0xfe9                                                                                     
001bae   ffe9                                                                                                               
001bb0   50f4     MOVF      0xf4,0x0,0x0                                                                                    
001bb2   26ea     ADDWF     0xea,0x1,0x0                                                                                    
001bb4   0e3c     MOVLW     0x3c                                                                                            
001bb6   26e9     ADDWF     0xe9,0x1,0x0                                                                                    
001bb8   0e01     MOVLW     0x1                                                                                             
001bba   22ea     ADDWFC    0xea,0x1,0x0                                                                                    
001bbc   0e0a     MOVLW     0xa                                                                                             
001bbe   26e9     ADDWF     0xe9,0x1,0x0                                                                                    
001bc0   0e00     MOVLW     0x0                                                                                             
001bc2   22ea     ADDWFC    0xea,0x1,0x0                                                                                    
001bc4   50ef     MOVF      0xef,0x0,0x0                                                                                    
001bc6   5de4     SUBWF     0xe4,0x0,0x1                                                                                    
001bc8   e001     BZ        0x1bcc                                                                                          
001bca   d10d     BRA       0x1de6                                                                                          
                                                 {                                                                          C:\Embedded\Joystick\jinit.c
001bcc   cfdf     MOVFF     0xfdf,0xfe9           RXB_B [i].TXBD0 = RXB_B_BTXBD0;                                           C:\Embedded\Joystick\jinit.c
001bce   ffe9                                                                                                               
001bd0   6aea     CLRF      0xea,0x0                                                                                        
001bd2   bee9     BTFSC     0xe9,0x7,0x0                                                                                    
001bd4   68ea     SETF      0xea,0x0                                                                                        
001bd6   0e0c     MOVLW     0xc                                                                                             
001bd8   02ea     MULWF     0xea,0x0                                                                                        
001bda   cff3     MOVFF     0xff3,0xfea                                                                                     
001bdc   ffea                                                                                                               
001bde   02e9     MULWF     0xe9,0x0                                                                                        
001be0   cff3     MOVFF     0xff3,0xfe9                                                                                     
001be2   ffe9                                                                                                               
001be4   50f4     MOVF      0xf4,0x0,0x0                                                                                    
001be6   26ea     ADDWF     0xea,0x1,0x0                                                                                    
001be8   0e3c     MOVLW     0x3c                                                                                            
001bea   26e9     ADDWF     0xe9,0x1,0x0                                                                                    
001bec   0e01     MOVLW     0x1                                                                                             
001bee   22ea     ADDWFC    0xea,0x1,0x0                                                                                    
001bf0   0e07     MOVLW     0x7                                                                                             
001bf2   26e9     ADDWF     0xe9,0x1,0x0                                                                                    
001bf4   0e00     MOVLW     0x0                                                                                             
001bf6   22ea     ADDWFC    0xea,0x1,0x0                                                                                    
001bf8   c1da     MOVFF     0x1da,0xfef                                                                                     
001bfa   ffef                                                                                                               
001bfc   cfdf     MOVFF     0xfdf,0xfe9           RXB_B [i].TXBD1 = RXB_B_BTXBD1;                                           C:\Embedded\Joystick\jinit.c
001bfe   ffe9                                                                                                               
001c00   6aea     CLRF      0xea,0x0                                                                                        
001c02   bee9     BTFSC     0xe9,0x7,0x0                                                                                    
001c04   68ea     SETF      0xea,0x0                                                                                        
001c06   0e0c     MOVLW     0xc                                                                                             
001c08   02ea     MULWF     0xea,0x0                                                                                        
001c0a   cff3     MOVFF     0xff3,0xfea                                                                                     
001c0c   ffea                                                                                                               
001c0e   02e9     MULWF     0xe9,0x0                                                                                        
001c10   cff3     MOVFF     0xff3,0xfe9                                                                                     
001c12   ffe9                                                                                                               
001c14   50f4     MOVF      0xf4,0x0,0x0                                                                                    
001c16   26ea     ADDWF     0xea,0x1,0x0                                                                                    
001c18   0e3c     MOVLW     0x3c                                                                                            
001c1a   26e9     ADDWF     0xe9,0x1,0x0                                                                                    
001c1c   0e01     MOVLW     0x1                                                                                             
001c1e   22ea     ADDWFC    0xea,0x1,0x0                                                                                    
001c20   0e06     MOVLW     0x6                                                                                             
001c22   26e9     ADDWF     0xe9,0x1,0x0                                                                                    
001c24   0e00     MOVLW     0x0                                                                                             
001c26   22ea     ADDWFC    0xea,0x1,0x0                                                                                    
001c28   c1db     MOVFF     0x1db,0xfef                                                                                     
001c2a   ffef                                                                                                               
001c2c   cfdf     MOVFF     0xfdf,0xfe9           RXB_B [i].TXBD2 = RXB_B_BTXBD2;                                           C:\Embedded\Joystick\jinit.c
001c2e   ffe9                                                                                                               
001c30   6aea     CLRF      0xea,0x0                                                                                        
001c32   bee9     BTFSC     0xe9,0x7,0x0                                                                                    
001c34   68ea     SETF      0xea,0x0                                                                                        
001c36   0e0c     MOVLW     0xc                                                                                             
001c38   02ea     MULWF     0xea,0x0                                                                                        
001c3a   cff3     MOVFF     0xff3,0xfea                                                                                     
001c3c   ffea                                                                                                               
001c3e   02e9     MULWF     0xe9,0x0                                                                                        
001c40   cff3     MOVFF     0xff3,0xfe9                                                                                     
001c42   ffe9                                                                                                               
001c44   50f4     MOVF      0xf4,0x0,0x0                                                                                    
001c46   26ea     ADDWF     0xea,0x1,0x0                                                                                    
001c48   0e3c     MOVLW     0x3c                                                                                            
001c4a   26e9     ADDWF     0xe9,0x1,0x0                                                                                    
001c4c   0e01     MOVLW     0x1                                                                                             
001c4e   22ea     ADDWFC    0xea,0x1,0x0                                                                                    
001c50   0e05     MOVLW     0x5                                                                                             
001c52   26e9     ADDWF     0xe9,0x1,0x0                                                                                    
001c54   0e00     MOVLW     0x0                                                                                             
001c56   22ea     ADDWFC    0xea,0x1,0x0                                                                                    
001c58   c1dc     MOVFF     0x1dc,0xfef                                                                                     
001c5a   ffef                                                                                                               
001c5c   cfdf     MOVFF     0xfdf,0xfe9           RXB_B [i].TXBD3 = RXB_B_BTXBD3;                                           C:\Embedded\Joystick\jinit.c
001c5e   ffe9                                                                                                               
001c60   6aea     CLRF      0xea,0x0                                                                                        
001c62   bee9     BTFSC     0xe9,0x7,0x0                                                                                    
001c64   68ea     SETF      0xea,0x0                                                                                        
001c66   0e0c     MOVLW     0xc                                                                                             
001c68   02ea     MULWF     0xea,0x0                                                                                        
001c6a   cff3     MOVFF     0xff3,0xfea                                                                                     
001c6c   ffea                                                                                                               
001c6e   02e9     MULWF     0xe9,0x0                                                                                        
001c70   cff3     MOVFF     0xff3,0xfe9                                                                                     
001c72   ffe9                                                                                                               
001c74   50f4     MOVF      0xf4,0x0,0x0                                                                                    
001c76   26ea     ADDWF     0xea,0x1,0x0                                                                                    
001c78   0e3c     MOVLW     0x3c                                                                                            
001c7a   26e9     ADDWF     0xe9,0x1,0x0                                                                                    
001c7c   0e01     MOVLW     0x1                                                                                             
001c7e   22ea     ADDWFC    0xea,0x1,0x0                                                                                    
001c80   0e04     MOVLW     0x4                                                                                             
001c82   26e9     ADDWF     0xe9,0x1,0x0                                                                                    
001c84   0e00     MOVLW     0x0                                                                                             
001c86   22ea     ADDWFC    0xea,0x1,0x0                                                                                    
001c88   c1dd     MOVFF     0x1dd,0xfef                                                                                     
001c8a   ffef                                                                                                               
001c8c   cfdf     MOVFF     0xfdf,0xfe9           RXB_B [i].TXBD4 = RXB_B_BTXBD4;                                           C:\Embedded\Joystick\jinit.c
001c8e   ffe9                                                                                                               
001c90   6aea     CLRF      0xea,0x0                                                                                        
001c92   bee9     BTFSC     0xe9,0x7,0x0                                                                                    
001c94   68ea     SETF      0xea,0x0                                                                                        
001c96   0e0c     MOVLW     0xc                                                                                             
001c98   02ea     MULWF     0xea,0x0                                                                                        
001c9a   cff3     MOVFF     0xff3,0xfea                                                                                     
001c9c   ffea                                                                                                               
001c9e   02e9     MULWF     0xe9,0x0                                                                                        
001ca0   cff3     MOVFF     0xff3,0xfe9                                                                                     
001ca2   ffe9                                                                                                               
001ca4   50f4     MOVF      0xf4,0x0,0x0                                                                                    
001ca6   26ea     ADDWF     0xea,0x1,0x0                                                                                    
001ca8   0e3c     MOVLW     0x3c                                                                                            
001caa   26e9     ADDWF     0xe9,0x1,0x0                                                                                    
001cac   0e01     MOVLW     0x1                                                                                             
001cae   22ea     ADDWFC    0xea,0x1,0x0                                                                                    
001cb0   0e03     MOVLW     0x3                                                                                             
001cb2   26e9     ADDWF     0xe9,0x1,0x0                                                                                    
001cb4   0e00     MOVLW     0x0                                                                                             
001cb6   22ea     ADDWFC    0xea,0x1,0x0                                                                                    
001cb8   c1de     MOVFF     0x1de,0xfef                                                                                     
001cba   ffef                                                                                                               
001cbc   cfdf     MOVFF     0xfdf,0xfe9           RXB_B [i].TXBD5 = RXB_B_BTXBD5;                                           C:\Embedded\Joystick\jinit.c
001cbe   ffe9                                                                                                               
001cc0   6aea     CLRF      0xea,0x0                                                                                        
001cc2   bee9     BTFSC     0xe9,0x7,0x0                                                                                    
001cc4   68ea     SETF      0xea,0x0                                                                                        
001cc6   0e0c     MOVLW     0xc                                                                                             
001cc8   02ea     MULWF     0xea,0x0                                                                                        
001cca   cff3     MOVFF     0xff3,0xfea                                                                                     
001ccc   ffea                                                                                                               
001cce   02e9     MULWF     0xe9,0x0                                                                                        
001cd0   cff3     MOVFF     0xff3,0xfe9                                                                                     
001cd2   ffe9                                                                                                               
001cd4   50f4     MOVF      0xf4,0x0,0x0                                                                                    
001cd6   26ea     ADDWF     0xea,0x1,0x0                                                                                    
001cd8   0e3c     MOVLW     0x3c                                                                                            
001cda   26e9     ADDWF     0xe9,0x1,0x0                                                                                    
001cdc   0e01     MOVLW     0x1                                                                                             
001cde   22ea     ADDWFC    0xea,0x1,0x0                                                                                    
001ce0   0e02     MOVLW     0x2                                                                                             
001ce2   26e9     ADDWF     0xe9,0x1,0x0                                                                                    
001ce4   0e00     MOVLW     0x0                                                                                             
001ce6   22ea     ADDWFC    0xea,0x1,0x0                                                                                    
001ce8   c1df     MOVFF     0x1df,0xfef                                                                                     
001cea   ffef                                                                                                               
001cec   cfdf     MOVFF     0xfdf,0xfe9           RXB_B [i].TXBD6 = RXB_B_BTXBD6;                                           C:\Embedded\Joystick\jinit.c
001cee   ffe9                                                                                                               
001cf0   6aea     CLRF      0xea,0x0                                                                                        
001cf2   bee9     BTFSC     0xe9,0x7,0x0                                                                                    
001cf4   68ea     SETF      0xea,0x0                                                                                        
001cf6   0e0c     MOVLW     0xc                                                                                             
001cf8   02ea     MULWF     0xea,0x0                                                                                        
001cfa   cff3     MOVFF     0xff3,0xfea                                                                                     
001cfc   ffea                                                                                                               
001cfe   02e9     MULWF     0xe9,0x0                                                                                        
001d00   cff3     MOVFF     0xff3,0xfe9                                                                                     
001d02   ffe9                                                                                                               
001d04   50f4     MOVF      0xf4,0x0,0x0                                                                                    
001d06   26ea     ADDWF     0xea,0x1,0x0                                                                                    
001d08   0e3c     MOVLW     0x3c                                                                                            
001d0a   26e9     ADDWF     0xe9,0x1,0x0                                                                                    
001d0c   0e01     MOVLW     0x1                                                                                             
001d0e   22ea     ADDWFC    0xea,0x1,0x0                                                                                    
001d10   52ee     MOVF      0xee,0x1,0x0                                                                                    
001d12   c1e0     MOVFF     0x1e0,0xfef                                                                                     
001d14   ffef                                                                                                               
001d16   cfdf     MOVFF     0xfdf,0xfe9           RXB_B [i].TXBD7 = RXB_B_BTXBD7;                                           C:\Embedded\Joystick\jinit.c
001d18   ffe9                                                                                                               
001d1a   6aea     CLRF      0xea,0x0                                                                                        
001d1c   bee9     BTFSC     0xe9,0x7,0x0                                                                                    
001d1e   68ea     SETF      0xea,0x0                                                                                        
001d20   0e0c     MOVLW     0xc                                                                                             
001d22   02ea     MULWF     0xea,0x0                                                                                        
001d24   cff3     MOVFF     0xff3,0xfea                                                                                     
001d26   ffea                                                                                                               
001d28   02e9     MULWF     0xe9,0x0                                                                                        
001d2a   cff3     MOVFF     0xff3,0xfe9                                                                                     
001d2c   ffe9                                                                                                               
001d2e   50f4     MOVF      0xf4,0x0,0x0                                                                                    
001d30   26ea     ADDWF     0xea,0x1,0x0                                                                                    
001d32   0e3c     MOVLW     0x3c                                                                                            
001d34   26e9     ADDWF     0xe9,0x1,0x0                                                                                    
001d36   0e01     MOVLW     0x1                                                                                             
001d38   22ea     ADDWFC    0xea,0x1,0x0                                                                                    
001d3a   c1e1     MOVFF     0x1e1,0xfef                                                                                     
001d3c   ffef                                                                                                               
001d3e   cfdf     MOVFF     0xfdf,0xfe9    	   RXB_B [i].TXBDLC = RXB_B_BTXBDLC;                                            C:\Embedded\Joystick\jinit.c
001d40   ffe9                                                                                                               
001d42   6aea     CLRF      0xea,0x0                                                                                        
001d44   bee9     BTFSC     0xe9,0x7,0x0                                                                                    
001d46   68ea     SETF      0xea,0x0                                                                                        
001d48   0e0c     MOVLW     0xc                                                                                             
001d4a   02ea     MULWF     0xea,0x0                                                                                        
001d4c   cff3     MOVFF     0xff3,0xfea                                                                                     
001d4e   ffea                                                                                                               
001d50   02e9     MULWF     0xe9,0x0                                                                                        
001d52   cff3     MOVFF     0xff3,0xfe9                                                                                     
001d54   ffe9                                                                                                               
001d56   50f4     MOVF      0xf4,0x0,0x0                                                                                    
001d58   26ea     ADDWF     0xea,0x1,0x0                                                                                    
001d5a   0e3c     MOVLW     0x3c                                                                                            
001d5c   26e9     ADDWF     0xe9,0x1,0x0                                                                                    
001d5e   0e01     MOVLW     0x1                                                                                             
001d60   22ea     ADDWFC    0xea,0x1,0x0                                                                                    
001d62   0e08     MOVLW     0x8                                                                                             
001d64   26e9     ADDWF     0xe9,0x1,0x0                                                                                    
001d66   0e00     MOVLW     0x0                                                                                             
001d68   22ea     ADDWFC    0xea,0x1,0x0                                                                                    
001d6a   c1e5     MOVFF     0x1e5,0xfef                                                                                     
001d6c   ffef                                                                                                               
001d6e   cfdf     MOVFF     0xfdf,0xfe9           RXB_B [i].ST_B.IN  = 1;                                                   C:\Embedded\Joystick\jinit.c
001d70   ffe9                                                                                                               
001d72   6aea     CLRF      0xea,0x0                                                                                        
001d74   bee9     BTFSC     0xe9,0x7,0x0                                                                                    
001d76   68ea     SETF      0xea,0x0                                                                                        
001d78   0e0c     MOVLW     0xc                                                                                             
001d7a   02ea     MULWF     0xea,0x0                                                                                        
001d7c   cff3     MOVFF     0xff3,0xfea                                                                                     
001d7e   ffea                                                                                                               
001d80   02e9     MULWF     0xe9,0x0                                                                                        
001d82   cff3     MOVFF     0xff3,0xfe9                                                                                     
001d84   ffe9                                                                                                               
001d86   50f4     MOVF      0xf4,0x0,0x0                                                                                    
001d88   26ea     ADDWF     0xea,0x1,0x0                                                                                    
001d8a   0e3c     MOVLW     0x3c                                                                                            
001d8c   26e9     ADDWF     0xe9,0x1,0x0                                                                                    
001d8e   0e01     MOVLW     0x1                                                                                             
001d90   22ea     ADDWFC    0xea,0x1,0x0                                                                                    
001d92   0e0b     MOVLW     0xb                                                                                             
001d94   26e9     ADDWF     0xe9,0x1,0x0                                                                                    
001d96   0e00     MOVLW     0x0                                                                                             
001d98   22ea     ADDWFC    0xea,0x1,0x0                                                                                    
001d9a   8cef     BSF       0xef,0x6,0x0                                                                                    
001d9c   51e2     MOVF      0xe2,0x0,0x1          RXB_B [i].ST_B.R_R = RXB_B_BST_BR_R;                                      C:\Embedded\Joystick\jinit.c
001d9e   6e0a     MOVWF     0xa,0x0                                                                                         
001da0   cfdf     MOVFF     0xfdf,0xfe9                                                                                     
001da2   ffe9                                                                                                               
001da4   6aea     CLRF      0xea,0x0                                                                                        
001da6   bee9     BTFSC     0xe9,0x7,0x0                                                                                    
001da8   68ea     SETF      0xea,0x0                                                                                        
001daa   0e0c     MOVLW     0xc                                                                                             
001dac   02ea     MULWF     0xea,0x0                                                                                        
001dae   cff3     MOVFF     0xff3,0xfea                                                                                     
001db0   ffea                                                                                                               
001db2   02e9     MULWF     0xe9,0x0                                                                                        
001db4   cff3     MOVFF     0xff3,0xfe9                                                                                     
001db6   ffe9                                                                                                               
001db8   50f4     MOVF      0xf4,0x0,0x0                                                                                    
001dba   26ea     ADDWF     0xea,0x1,0x0                                                                                    
001dbc   0e3c     MOVLW     0x3c                                                                                            
001dbe   26e9     ADDWF     0xe9,0x1,0x0                                                                                    
001dc0   0e01     MOVLW     0x1                                                                                             
001dc2   22ea     ADDWFC    0xea,0x1,0x0                                                                                    
001dc4   0e0b     MOVLW     0xb                                                                                             
001dc6   26e9     ADDWF     0xe9,0x1,0x0                                                                                    
001dc8   0e00     MOVLW     0x0                                                                                             
001dca   22ea     ADDWFC    0xea,0x1,0x0                                                                                    
001dcc   500a     MOVF      0xa,0x0,0x0                                                                                     
001dce   0b01     ANDLW     0x1                                                                                             
001dd0   6ef3     MOVWF     0xf3,0x0                                                                                        
001dd2   46f3     RLNCF     0xf3,0x1,0x0                                                                                    
001dd4   46f3     RLNCF     0xf3,0x1,0x0                                                                                    
001dd6   46f3     RLNCF     0xf3,0x1,0x0                                                                                    
001dd8   46f3     RLNCF     0xf3,0x1,0x0                                                                                    
001dda   46f3     RLNCF     0xf3,0x1,0x0                                                                                    
001ddc   0edf     MOVLW     0xdf                                                                                            
001dde   14ef     ANDWF     0xef,0x0,0x0                                                                                    
001de0   10f3     IORWF     0xf3,0x0,0x0                                                                                    
001de2   6eef     MOVWF     0xef,0x0                                                                                        
001de4   d002     BRA       0x1dea                break;                                                                    C:\Embedded\Joystick\jinit.c
                                                 }                                                                          C:\Embedded\Joystick\jinit.c
                                               }                                                                            C:\Embedded\Joystick\jinit.c
                                                                                                                            C:\Embedded\Joystick\jinit.c
                                              // Overflow buffer                                                            C:\Embedded\Joystick\jinit.c
001dea   0ec0     MOVLW     0xc0              if (COMSTAT & 0xC0)                                                           C:\Embedded\Joystick\jinit.c
001dec   1474     ANDWF     0x74,0x0,0x0                                                                                    
001dee   e002     BZ        0x1df4                                                                                          
                                               {                                                                            C:\Embedded\Joystick\jinit.c
001df0   9e74     BCF       0x74,0x7,0x0        COMSTATbits.RXB0OVFL   = 0;                                                 C:\Embedded\Joystick\jinit.c
001df2   9c74     BCF       0x74,0x6,0x0        COMSTATbits.RXB1OVFL   = 0;                                                 C:\Embedded\Joystick\jinit.c
                                               }                                                                            C:\Embedded\Joystick\jinit.c
                                                                                                                            C:\Embedded\Joystick\jinit.c
001df4   0ef1     MOVLW     0xf1           	CANCON &= 0xF1;		//clear CANCON.WIN bits                                        C:\Embedded\Joystick\jinit.c
001df6   166f     ANDWF     0x6f,0x1,0x0                                                                                    
001df8   0e01     MOVLW     0x1            	TempCANSTAT &= 0x0E;                                                            C:\Embedded\Joystick\jinit.c
001dfa   90db     BCF       0xdb,0x0,0x0                                                                                    
001dfc   98db     BCF       0xdb,0x4,0x0                                                                                    
001dfe   9adb     BCF       0xdb,0x5,0x0                                                                                    
001e00   9cdb     BCF       0xdb,0x6,0x0                                                                                    
001e02   9edb     BCF       0xdb,0x7,0x0                                                                                    
001e04   50db     MOVF      0xdb,0x0,0x0   	CANCON |= TempCANSTAT;                                                          C:\Embedded\Joystick\jinit.c
001e06   126f     IORWF     0x6f,0x1,0x0                                                                                    
001e08   0ef1     MOVLW     0xf1           	CANCON &=0xF1;                                                                  C:\Embedded\Joystick\jinit.c
001e0a   166f     ANDWF     0x6f,0x1,0x0                                                                                    
001e0c   0e02     MOVLW     0x2            	CANCON |= TempCANCON;                                                           C:\Embedded\Joystick\jinit.c
001e0e   50db     MOVF      0xdb,0x0,0x0                                                                                    
001e10   126f     IORWF     0x6f,0x1,0x0                                                                                    
001e12   0e03     MOVLW     0x3            }                                                                                C:\Embedded\Joystick\jinit.c
001e14   5ce1     SUBWF     0xe1,0x0,0x0                                                                                    
001e16   e202     BC        0x1e1c                                                                                          
001e18   6ae1     CLRF      0xe1,0x0                                                                                        
001e1a   52e5     MOVF      0xe5,0x1,0x0                                                                                    
001e1c   6ee1     MOVWF     0xe1,0x0                                                                                        
001e1e   52e5     MOVF      0xe5,0x1,0x0                                                                                    
001e20   cfe7     MOVFF     0xfe7,0xfd9                                                                                     
001e22   ffd9                                                                                                               
001e24   52e5     MOVF      0xe5,0x1,0x0                                                                                    
001e26   cfe5     MOVFF     0xfe5,0xff4                                                                                     
001e28   fff4                                                                                                               
001e2a   cfe5     MOVFF     0xfe5,0xff3                                                                                     
001e2c   fff3                                                                                                               
001e2e   cfe5     MOVFF     0xfe5,0xfea                                                                                     
001e30   ffea                                                                                                               
001e32   cfe5     MOVFF     0xfe5,0xfe9                                                                                     
001e34   ffe9                                                                                                               
001e36   cfe5     MOVFF     0xfe5,0xfda                                                                                     
001e38   ffda                                                                                                               
001e3a   0011     RETFIE    0x1                                                                                             
                                                                                                                            C:\Embedded\Joystick\jinit.c
                                           //***************************************************//                          C:\Embedded\Joystick\jinit.c
                                           //Write information to on-board EEPROM                       //                  C:\Embedded\Joystick\jinit.c
                                           //***************************************************//                          C:\Embedded\Joystick\jinit.c
001e3c   cfd9     MOVFF     0xfd9,0xfe6    void WriteEEprom_OnBoard (unsigned char EEPROM_address,unsigned char EEPROM_data) C:\Embedded\Joystick\jinit.c
001e3e   ffe6                                                                                                               
001e40   cfe1     MOVFF     0xfe1,0xfd9                                                                                     
001e42   ffd9                                                                                                               
                                           {                                                                                C:\Embedded\Joystick\jinit.c
001e44   b2a6     BTFSC     0xa6,0x1,0x0     while (EECON1bits.WR);  //wait for write cycle to complete                     C:\Embedded\Joystick\jinit.c
001e46   d7fe     BRA       0x1e44                                                                                          
                                                                                                                            C:\Embedded\Joystick\jinit.c
001e48   0efe     MOVLW     0xfe             EEADR = EEPROM_address;                                                        C:\Embedded\Joystick\jinit.c
001e4a   50db     MOVF      0xdb,0x0,0x0                                                                                    
001e4c   6ea9     MOVWF     0xa9,0x0                                                                                        
001e4e   0efd     MOVLW     0xfd             EEDATA = EEPROM_data;                                                          C:\Embedded\Joystick\jinit.c
001e50   50db     MOVF      0xdb,0x0,0x0                                                                                    
001e52   6ea8     MOVWF     0xa8,0x0                                                                                        
001e54   9ea6     BCF       0xa6,0x7,0x0     EECON1bits.EEPGD = 0;                                                          C:\Embedded\Joystick\jinit.c
001e56   9ca6     BCF       0xa6,0x6,0x0     EECON1bits.CFGS = 0;                                                           C:\Embedded\Joystick\jinit.c
001e58   84a6     BSF       0xa6,0x2,0x0     EECON1bits.WREN = 1;                                                           C:\Embedded\Joystick\jinit.c
001e5a   9ef2     BCF       0xf2,0x7,0x0     INTCONbits.GIE = 0;                                                            C:\Embedded\Joystick\jinit.c
001e5c   0e55     MOVLW     0x55             EECON2 = 0x55;                                                                 C:\Embedded\Joystick\jinit.c
001e5e   6ea7     MOVWF     0xa7,0x0                                                                                        
001e60   0eaa     MOVLW     0xaa             EECON2 = 0xAA;                                                                 C:\Embedded\Joystick\jinit.c
001e62   6ea7     MOVWF     0xa7,0x0                                                                                        
001e64   82a6     BSF       0xa6,0x1,0x0     EECON1bits.WR = 1;                                                             C:\Embedded\Joystick\jinit.c
001e66   8ef2     BSF       0xf2,0x7,0x0     INTCONbits.GIE = 1;                                                            C:\Embedded\Joystick\jinit.c
001e68   94a6     BCF       0xa6,0x2,0x0     EECON1bits.WREN = 0;                                                           C:\Embedded\Joystick\jinit.c
001e6a   52e5     MOVF      0xe5,0x1,0x0   }                                                                                C:\Embedded\Joystick\jinit.c
001e6c   cfe7     MOVFF     0xfe7,0xfd9                                                                                     
001e6e   ffd9                                                                                                               
001e70   0012     RETURN    0x0                                                                                             
                                                                                                                            C:\Embedded\Joystick\jinit.c
                                           //***************************************************//                          C:\Embedded\Joystick\jinit.c
                                           //Read information from EEPROM                       //                          C:\Embedded\Joystick\jinit.c
                                           //***************************************************//                          C:\Embedded\Joystick\jinit.c
001e72   cfd9     MOVFF     0xfd9,0xfe6    unsigned char ReadEEprom_OnBoard (unsigned char EEaddress)                       C:\Embedded\Joystick\jinit.c
001e74   ffe6                                                                                                               
001e76   cfe1     MOVFF     0xfe1,0xfd9                                                                                     
001e78   ffd9                                                                                                               
                                           {                                                                                C:\Embedded\Joystick\jinit.c
001e7a   94a6     BCF       0xa6,0x2,0x0     EECON1bits.WREN = 0; //clear write bit just in case                            C:\Embedded\Joystick\jinit.c
001e7c   b0a6     BTFSC     0xa6,0x0,0x0     while (EECON1bits.RD);  //wait for read cycle to complete, just in case        C:\Embedded\Joystick\jinit.c
001e7e   d7fe     BRA       0x1e7c                                                                                          
                                                                                                                            C:\Embedded\Joystick\jinit.c
001e80   0efe     MOVLW     0xfe             EEADR = EEaddress;                                                             C:\Embedded\Joystick\jinit.c
001e82   50db     MOVF      0xdb,0x0,0x0                                                                                    
001e84   6ea9     MOVWF     0xa9,0x0                                                                                        
001e86   9ea6     BCF       0xa6,0x7,0x0     EECON1bits.EEPGD = 0;                                                          C:\Embedded\Joystick\jinit.c
001e88   9ca6     BCF       0xa6,0x6,0x0     EECON1bits.CFGS = 0;                                                           C:\Embedded\Joystick\jinit.c
001e8a   80a6     BSF       0xa6,0x0,0x0     EECON1bits.RD = 1;                                                             C:\Embedded\Joystick\jinit.c
001e8c   50a8     MOVF      0xa8,0x0,0x0     return (EEDATA);                                                               C:\Embedded\Joystick\jinit.c
001e8e   d000     BRA       0x1e90                                                                                          
001e90   52e5     MOVF      0xe5,0x1,0x0   }                                                                                C:\Embedded\Joystick\jinit.c
001e92   cfe7     MOVFF     0xfe7,0xfd9                                                                                     
001e94   ffd9                                                                                                               
001e96   0012     RETURN    0x0                                                                                             
                                                                                                                            C:\Embedded\Joystick\jinit.c
                                           //***************************************************//                          C:\Embedded\Joystick\jinit.c
                                           // Initialization                                                                C:\Embedded\Joystick\jinit.c
                                           //***************************************************//                          C:\Embedded\Joystick\jinit.c
001e98   cfd9     MOVFF     0xfd9,0xfe6    void init_cip ( void )                                                           C:\Embedded\Joystick\jinit.c
001e9a   ffe6                                                                                                               
001e9c   cfe1     MOVFF     0xfe1,0xfd9                                                                                     
001e9e   ffd9                                                                                                               
001ea0   0e05     MOVLW     0x5                                                                                             
001ea2   26e1     ADDWF     0xe1,0x1,0x0                                                                                    
                                           {                                                                                C:\Embedded\Joystick\jinit.c
                                            unsigned char i,j,baud_rate;                                                    C:\Embedded\Joystick\jinit.c
                                            int k;                                                                          C:\Embedded\Joystick\jinit.c
001ea4   0101     MOVLB     0x1             StatoUnita        = CAN_STATE_INITIALISING;                                     C:\Embedded\Joystick\jinit.c
001ea6   0e83     MOVLW     0x83                                                                                            
001ea8   6ffb     MOVWF     0xfb,0x1                                                                                        
                                                                                                                            C:\Embedded\Joystick\jinit.c
001eaa   6ac2     CLRF      0xc2,0x0        ADCON0 = 0x00;                                                                  C:\Embedded\Joystick\jinit.c
001eac   0e0f     MOVLW     0xf             ADCON1 = 0x0F;		//gi: all digital ports                                         C:\Embedded\Joystick\jinit.c
001eae   6ec1     MOVWF     0xc1,0x0                                                                                        
001eb0   6abd     CLRF      0xbd,0x0        CCP1CON = 0x00;	//gi: CCP modules off                                           C:\Embedded\Joystick\jinit.c
                                                                                                                            C:\Embedded\Joystick\jinit.c
001eb2   6a80     CLRF      0x80,0x0        PORTA = 0;                                                                      C:\Embedded\Joystick\jinit.c
001eb4   6a81     CLRF      0x81,0x0        PORTB = 0;                                                                      C:\Embedded\Joystick\jinit.c
001eb6   6a82     CLRF      0x82,0x0        PORTC = 0;                                                                      C:\Embedded\Joystick\jinit.c
001eb8   6892     SETF      0x92,0x0        TRISA = 0xFF;                                                                   C:\Embedded\Joystick\jinit.c
001eba   0e0b     MOVLW     0xb             TRISB = 0x0B;		//RB0, RB1 = KEYPAD, RB2= CANTX, RB3= CANRX = set, RB4..RB7 = ROWS KEYPAD C:\Embedded\Joystick\jinit.c
001ebc   6e93     MOVWF     0x93,0x0                                                                                        
001ebe   0e10     MOVLW     0x10            TRISC = 0x10;		//RC7=CS (out), RC4=SDI port in, RC3=SCK = SPI clock out (should be input according to datasheet) C:\Embedded\Joystick\jinit.c
001ec0   6e94     MOVWF     0x94,0x0                                                                                        
                                                                                                                            C:\Embedded\Joystick\jinit.c
                                           #ifdef _p18f4580                                                                 C:\Embedded\Joystick\jinit.c
001ec2   0e07     MOVLW     0x7             CMCON  = 0x07;		//gi: comparator OFF - not in used                              C:\Embedded\Joystick\jinit.c
001ec4   6eb4     MOVWF     0xb4,0x0                                                                                        
001ec6   6a83     CLRF      0x83,0x0        PORTD = 0;                                                                      C:\Embedded\Joystick\jinit.c
001ec8   6a84     CLRF      0x84,0x0        PORTE = 0;                                                                      C:\Embedded\Joystick\jinit.c
001eca   6a95     CLRF      0x95,0x0        TRISD = 0;                                                                      C:\Embedded\Joystick\jinit.c
001ecc   6a96     CLRF      0x96,0x0        TRISE = 0;                                                                      C:\Embedded\Joystick\jinit.c
                                           #endif                                                                           C:\Embedded\Joystick\jinit.c
                                                                                                                            C:\Embedded\Joystick\jinit.c
001ece   6af2     CLRF      0xf2,0x0        INTCON = 0;			//initialize, DISABLE INTERRUPTS while processor initializes      C:\Embedded\Joystick\jinit.c
                                                                                                                            C:\Embedded\Joystick\jinit.c
001ed0   6ac7     CLRF      0xc7,0x0        SSPSTAT        = 0;		//NO SPI                                                   C:\Embedded\Joystick\jinit.c
001ed2   6ac6     CLRF      0xc6,0x0        SSPCON1        = 0;                                                             C:\Embedded\Joystick\jinit.c
001ed4   6ac5     CLRF      0xc5,0x0        SSPCON2        = 0;                                                             C:\Embedded\Joystick\jinit.c
                                                                                                                            C:\Embedded\Joystick\jinit.c
001ed6   6ae6     CLRF      0xe6,0x0        ReadEEprom_OnBoard(EEPROM_NODE_ID);                                             C:\Embedded\Joystick\jinit.c
001ed8   dfcc     RCALL     0x1e72                                                                                          
001eda   52e5     MOVF      0xe5,0x1,0x0                                                                                    
001edc   50a8     MOVF      0xa8,0x0,0x0    Id = EEDATA;                                                                    C:\Embedded\Joystick\jinit.c
001ede   0101     MOVLB     0x1                                                                                             
001ee0   6f8d     MOVWF     0x8d,0x1                                                                                        
001ee2   6b8e     CLRF      0x8e,0x1                                                                                        
                                                                                                                            C:\Embedded\Joystick\jinit.c
001ee4   0e02     MOVLW     0x2             ReadEEprom_OnBoard(EEPROM_HEART_BEAT);                                          C:\Embedded\Joystick\jinit.c
001ee6   6ee6     MOVWF     0xe6,0x0                                                                                        
001ee8   dfc4     RCALL     0x1e72                                                                                          
001eea   52e5     MOVF      0xe5,0x1,0x0                                                                                    
001eec   cfa8     MOVFF     0xfa8,0x19b     heartbeat_rate.low_byte = EEDATA;                                               C:\Embedded\Joystick\jinit.c
001eee   f19b                                                                                                               
001ef0   cfa8     MOVFF     0xfa8,0x199     heartbeat_count.low_byte = EEDATA;                                              C:\Embedded\Joystick\jinit.c
001ef2   f199                                                                                                               
                                                                                                                            C:\Embedded\Joystick\jinit.c
001ef4   0e03     MOVLW     0x3             ReadEEprom_OnBoard(EEPROM_HEART_BEAT+1);                                        C:\Embedded\Joystick\jinit.c
001ef6   6ee6     MOVWF     0xe6,0x0                                                                                        
001ef8   dfbc     RCALL     0x1e72                                                                                          
001efa   52e5     MOVF      0xe5,0x1,0x0                                                                                    
001efc   cfa8     MOVFF     0xfa8,0x19c     heartbeat_rate.high_byte = EEDATA;                                              C:\Embedded\Joystick\jinit.c
001efe   f19c                                                                                                               
001f00   cfa8     MOVFF     0xfa8,0x19a     heartbeat_count.high_byte = EEDATA;                                             C:\Embedded\Joystick\jinit.c
001f02   f19a                                                                                                               
                                                                                                                            C:\Embedded\Joystick\jinit.c
001f04   0e06     MOVLW     0x6             lta.b0 = ReadEEprom_OnBoard(EEPROM_Vendor_Id+0);                                C:\Embedded\Joystick\jinit.c
001f06   6ee6     MOVWF     0xe6,0x0                                                                                        
001f08   dfb4     RCALL     0x1e72                                                                                          
001f0a   52e5     MOVF      0xe5,0x1,0x0                                                                                    
001f0c   0101     MOVLB     0x1                                                                                             
001f0e   6fd6     MOVWF     0xd6,0x1                                                                                        
001f10   0e07     MOVLW     0x7             lta.b1 = ReadEEprom_OnBoard(EEPROM_Vendor_Id+1);                                C:\Embedded\Joystick\jinit.c
001f12   6ee6     MOVWF     0xe6,0x0                                                                                        
001f14   dfae     RCALL     0x1e72                                                                                          
001f16   52e5     MOVF      0xe5,0x1,0x0                                                                                    
001f18   0101     MOVLB     0x1                                                                                             
001f1a   6fd7     MOVWF     0xd7,0x1                                                                                        
001f1c   0e08     MOVLW     0x8             lta.b2 = ReadEEprom_OnBoard(EEPROM_Vendor_Id+2);                                C:\Embedded\Joystick\jinit.c
001f1e   6ee6     MOVWF     0xe6,0x0                                                                                        
001f20   dfa8     RCALL     0x1e72                                                                                          
001f22   52e5     MOVF      0xe5,0x1,0x0                                                                                    
001f24   0101     MOVLB     0x1                                                                                             
001f26   6fd8     MOVWF     0xd8,0x1                                                                                        
001f28   0e09     MOVLW     0x9             lta.b3 = ReadEEprom_OnBoard(EEPROM_Vendor_Id+3);                                C:\Embedded\Joystick\jinit.c
001f2a   6ee6     MOVWF     0xe6,0x0                                                                                        
001f2c   dfa2     RCALL     0x1e72                                                                                          
001f2e   52e5     MOVF      0xe5,0x1,0x0                                                                                    
001f30   0101     MOVLB     0x1                                                                                             
001f32   6fd9     MOVWF     0xd9,0x1                                                                                        
001f34   c1d6     MOVFF     0x1d6,0xe0      rCO_DevVendorID = lta.l;                                                        C:\Embedded\Joystick\jinit.c
001f36   f0e0                                                                                                               
001f38   c1d7     MOVFF     0x1d7,0xe1                                                                                      
001f3a   f0e1                                                                                                               
001f3c   c1d8     MOVFF     0x1d8,0xe2                                                                                      
001f3e   f0e2                                                                                                               
001f40   c1d9     MOVFF     0x1d9,0xe3                                                                                      
001f42   f0e3                                                                                                               
                                                                                                                            C:\Embedded\Joystick\jinit.c
001f44   0e0a     MOVLW     0xa             lta.b0 = ReadEEprom_OnBoard(EEPROM_Product_code+0);                             C:\Embedded\Joystick\jinit.c
001f46   6ee6     MOVWF     0xe6,0x0                                                                                        
001f48   df94     RCALL     0x1e72                                                                                          
001f4a   52e5     MOVF      0xe5,0x1,0x0                                                                                    
001f4c   0101     MOVLB     0x1                                                                                             
001f4e   6fd6     MOVWF     0xd6,0x1                                                                                        
001f50   0e0b     MOVLW     0xb             lta.b1 = ReadEEprom_OnBoard(EEPROM_Product_code+1);                             C:\Embedded\Joystick\jinit.c
001f52   6ee6     MOVWF     0xe6,0x0                                                                                        
001f54   df8e     RCALL     0x1e72                                                                                          
001f56   52e5     MOVF      0xe5,0x1,0x0                                                                                    
001f58   0101     MOVLB     0x1                                                                                             
001f5a   6fd7     MOVWF     0xd7,0x1                                                                                        
001f5c   0e0c     MOVLW     0xc             lta.b2 = ReadEEprom_OnBoard(EEPROM_Product_code+2);                             C:\Embedded\Joystick\jinit.c
001f5e   6ee6     MOVWF     0xe6,0x0                                                                                        
001f60   df88     RCALL     0x1e72                                                                                          
001f62   52e5     MOVF      0xe5,0x1,0x0                                                                                    
001f64   0101     MOVLB     0x1                                                                                             
001f66   6fd8     MOVWF     0xd8,0x1                                                                                        
001f68   0e0d     MOVLW     0xd             lta.b3 = ReadEEprom_OnBoard(EEPROM_Product_code+3);                             C:\Embedded\Joystick\jinit.c
001f6a   6ee6     MOVWF     0xe6,0x0                                                                                        
001f6c   df82     RCALL     0x1e72                                                                                          
001f6e   52e5     MOVF      0xe5,0x1,0x0                                                                                    
001f70   0101     MOVLB     0x1                                                                                             
001f72   6fd9     MOVWF     0xd9,0x1                                                                                        
001f74   c1d6     MOVFF     0x1d6,0xe4      rCO_DevProductCode = lta.l;                                                     C:\Embedded\Joystick\jinit.c
001f76   f0e4                                                                                                               
001f78   c1d7     MOVFF     0x1d7,0xe5                                                                                      
001f7a   f0e5                                                                                                               
001f7c   c1d8     MOVFF     0x1d8,0xe6                                                                                      
001f7e   f0e6                                                                                                               
001f80   c1d9     MOVFF     0x1d9,0xe7                                                                                      
001f82   f0e7                                                                                                               
                                                                                                                            C:\Embedded\Joystick\jinit.c
001f84   0e0e     MOVLW     0xe             lta.b0 = ReadEEprom_OnBoard(EEPROM_revision_numb+0);                            C:\Embedded\Joystick\jinit.c
001f86   6ee6     MOVWF     0xe6,0x0                                                                                        
001f88   df74     RCALL     0x1e72                                                                                          
001f8a   52e5     MOVF      0xe5,0x1,0x0                                                                                    
001f8c   0101     MOVLB     0x1                                                                                             
001f8e   6fd6     MOVWF     0xd6,0x1                                                                                        
001f90   0e0f     MOVLW     0xf             lta.b1 = ReadEEprom_OnBoard(EEPROM_revision_numb+1);                            C:\Embedded\Joystick\jinit.c
001f92   6ee6     MOVWF     0xe6,0x0                                                                                        
001f94   df6e     RCALL     0x1e72                                                                                          
001f96   52e5     MOVF      0xe5,0x1,0x0                                                                                    
001f98   0101     MOVLB     0x1                                                                                             
001f9a   6fd7     MOVWF     0xd7,0x1                                                                                        
001f9c   0e10     MOVLW     0x10            lta.b2 = ReadEEprom_OnBoard(EEPROM_revision_numb+2);                            C:\Embedded\Joystick\jinit.c
001f9e   6ee6     MOVWF     0xe6,0x0                                                                                        
001fa0   df68     RCALL     0x1e72                                                                                          
001fa2   52e5     MOVF      0xe5,0x1,0x0                                                                                    
001fa4   0101     MOVLB     0x1                                                                                             
001fa6   6fd8     MOVWF     0xd8,0x1                                                                                        
001fa8   0e11     MOVLW     0x11            lta.b3 = ReadEEprom_OnBoard(EEPROM_revision_numb+3);                            C:\Embedded\Joystick\jinit.c
001faa   6ee6     MOVWF     0xe6,0x0                                                                                        
001fac   df62     RCALL     0x1e72                                                                                          
001fae   52e5     MOVF      0xe5,0x1,0x0                                                                                    
001fb0   0101     MOVLB     0x1                                                                                             
001fb2   6fd9     MOVWF     0xd9,0x1                                                                                        
001fb4   c1d6     MOVFF     0x1d6,0xe8      rCO_DevRevNo = lta.l;                                                           C:\Embedded\Joystick\jinit.c
001fb6   f0e8                                                                                                               
001fb8   c1d7     MOVFF     0x1d7,0xe9                                                                                      
001fba   f0e9                                                                                                               
001fbc   c1d8     MOVFF     0x1d8,0xea                                                                                      
001fbe   f0ea                                                                                                               
001fc0   c1d9     MOVFF     0x1d9,0xeb                                                                                      
001fc2   f0eb                                                                                                               
                                                                                                                            C:\Embedded\Joystick\jinit.c
001fc4   0e12     MOVLW     0x12            lta.b0 = ReadEEprom_OnBoard(EEPROM_serial_numb+0);                              C:\Embedded\Joystick\jinit.c
001fc6   6ee6     MOVWF     0xe6,0x0                                                                                        
001fc8   df54     RCALL     0x1e72                                                                                          
001fca   52e5     MOVF      0xe5,0x1,0x0                                                                                    
001fcc   0101     MOVLB     0x1                                                                                             
001fce   6fd6     MOVWF     0xd6,0x1                                                                                        
001fd0   0e13     MOVLW     0x13            lta.b1 = ReadEEprom_OnBoard(EEPROM_serial_numb+1);                              C:\Embedded\Joystick\jinit.c
001fd2   6ee6     MOVWF     0xe6,0x0                                                                                        
001fd4   df4e     RCALL     0x1e72                                                                                          
001fd6   52e5     MOVF      0xe5,0x1,0x0                                                                                    
001fd8   0101     MOVLB     0x1                                                                                             
001fda   6fd7     MOVWF     0xd7,0x1                                                                                        
001fdc   0e14     MOVLW     0x14            lta.b2 = ReadEEprom_OnBoard(EEPROM_serial_numb+2);                              C:\Embedded\Joystick\jinit.c
001fde   6ee6     MOVWF     0xe6,0x0                                                                                        
001fe0   df48     RCALL     0x1e72                                                                                          
001fe2   52e5     MOVF      0xe5,0x1,0x0                                                                                    
001fe4   0101     MOVLB     0x1                                                                                             
001fe6   6fd8     MOVWF     0xd8,0x1                                                                                        
001fe8   0e15     MOVLW     0x15            lta.b3 = ReadEEprom_OnBoard(EEPROM_serial_numb+3);                              C:\Embedded\Joystick\jinit.c
001fea   6ee6     MOVWF     0xe6,0x0                                                                                        
001fec   df42     RCALL     0x1e72                                                                                          
001fee   52e5     MOVF      0xe5,0x1,0x0                                                                                    
001ff0   0101     MOVLB     0x1                                                                                             
001ff2   6fd9     MOVWF     0xd9,0x1                                                                                        
001ff4   c1d6     MOVFF     0x1d6,0xec      rCO_DevSerialNo = lta.l;                                                        C:\Embedded\Joystick\jinit.c
001ff6   f0ec                                                                                                               
001ff8   c1d7     MOVFF     0x1d7,0xed                                                                                      
001ffa   f0ed                                                                                                               
001ffc   c1d8     MOVFF     0x1d8,0xee                                                                                      
001ffe   f0ee                                                                                                               
002000   c1d9     MOVFF     0x1d9,0xef                                                                                      
002002   f0ef                                                                                                               
                                                                                                                            C:\Embedded\Joystick\jinit.c
002004   c19b     MOVFF     0x19b,0x204     uCO_COMM_NMTE_HeartBeat = heartbeat_rate.count;	//object 1017,0                 C:\Embedded\Joystick\jinit.c
002006   f204                                                                                                               
002008   c19c     MOVFF     0x19c,0x205                                                                                     
00200a   f205                                                                                                               
                                                                                                                            C:\Embedded\Joystick\jinit.c
00200c   0e01     MOVLW     0x1             baud_rate = ReadEEprom_OnBoard(EEPROM_CAN_BAUDRATE);                            C:\Embedded\Joystick\jinit.c
00200e   6ee6     MOVWF     0xe6,0x0                                                                                        
002010   df30     RCALL     0x1e72                                                                                          
002012   52e5     MOVF      0xe5,0x1,0x0                                                                                    
002014   6ee7     MOVWF     0xe7,0x0                                                                                        
002016   0e02     MOVLW     0x2                                                                                             
002018   cfe7     MOVFF     0xfe7,0xfdb                                                                                     
00201a   ffdb                                                                                                               
00201c   0e16     MOVLW     0x16            z_number_of_nodes = ReadEEprom_OnBoard(EEPROM_number_rx_nodes);                 C:\Embedded\Joystick\jinit.c
00201e   6ee6     MOVWF     0xe6,0x0                                                                                        
002020   df28     RCALL     0x1e72                                                                                          
002022   52e5     MOVF      0xe5,0x1,0x0                                                                                    
002024   0101     MOVLB     0x1                                                                                             
002026   6fa8     MOVWF     0xa8,0x1                                                                                        
002028   0e17     MOVLW     0x17            z_sw_node= ReadEEprom_OnBoard(EEPROM_SWITCH1);                                  C:\Embedded\Joystick\jinit.c
00202a   6ee6     MOVWF     0xe6,0x0                                                                                        
00202c   df22     RCALL     0x1e72                                                                                          
00202e   52e5     MOVF      0xe5,0x1,0x0                                                                                    
002030   0101     MOVLB     0x1                                                                                             
002032   6fa9     MOVWF     0xa9,0x1                                                                                        
002034   0e18     MOVLW     0x18            z_node_1 = ReadEEprom_OnBoard(EEPROM_POT_RX_ID1);                               C:\Embedded\Joystick\jinit.c
002036   6ee6     MOVWF     0xe6,0x0                                                                                        
002038   df1c     RCALL     0x1e72                                                                                          
00203a   52e5     MOVF      0xe5,0x1,0x0                                                                                    
00203c   0101     MOVLB     0x1                                                                                             
00203e   6faa     MOVWF     0xaa,0x1                                                                                        
002040   0e19     MOVLW     0x19            z_node_2 = ReadEEprom_OnBoard(EEPROM_POT_RX_ID2);                               C:\Embedded\Joystick\jinit.c
002042   6ee6     MOVWF     0xe6,0x0                                                                                        
002044   df16     RCALL     0x1e72                                                                                          
002046   52e5     MOVF      0xe5,0x1,0x0                                                                                    
002048   0101     MOVLB     0x1                                                                                             
00204a   6fab     MOVWF     0xab,0x1                                                                                        
00204c   0e1a     MOVLW     0x1a            z_node_3 = ReadEEprom_OnBoard(EEPROM_POT_RX_ID3);                               C:\Embedded\Joystick\jinit.c
00204e   6ee6     MOVWF     0xe6,0x0                                                                                        
002050   df10     RCALL     0x1e72                                                                                          
002052   52e5     MOVF      0xe5,0x1,0x0                                                                                    
002054   0101     MOVLB     0x1                                                                                             
002056   6fac     MOVWF     0xac,0x1                                                                                        
002058   0e1b     MOVLW     0x1b            z_node_4 = ReadEEprom_OnBoard(EEPROM_POT_RX_ID4);                               C:\Embedded\Joystick\jinit.c
00205a   6ee6     MOVWF     0xe6,0x0                                                                                        
00205c   df0a     RCALL     0x1e72                                                                                          
00205e   52e5     MOVF      0xe5,0x1,0x0                                                                                    
002060   0101     MOVLB     0x1                                                                                             
002062   6fad     MOVWF     0xad,0x1                                                                                        
002064   0e02     MOVLW     0x2             switch (baud_rate)			//translate baud rate number to BRGCOM1                    C:\Embedded\Joystick\jinit.c
002066   50db     MOVF      0xdb,0x0,0x0                                                                                    
002068   0a06     XORLW     0x6                                                                                             
00206a   e029     BZ        0x20be                                                                                          
00206c   0a03     XORLW     0x3                                                                                             
00206e   e021     BZ        0x20b2                                                                                          
002070   0a01     XORLW     0x1                                                                                             
002072   e019     BZ        0x20a6                                                                                          
002074   0a07     XORLW     0x7                                                                                             
002076   e011     BZ        0x209a                                                                                          
002078   0a01     XORLW     0x1                                                                                             
00207a   e009     BZ        0x208e                                                                                          
00207c   0a03     XORLW     0x3                                                                                             
00207e   e001     BZ        0x2082                                                                                          
002080   d024     BRA       0x20ca                                                                                          
                                            	{                                                                              C:\Embedded\Joystick\jinit.c
                                           	 case 1:                                                                        C:\Embedded\Joystick\jinit.c
002082   0e40     MOVLW     0x40           	 	baud_rate = CAN_BAUD_500K;                                                    C:\Embedded\Joystick\jinit.c
002084   6ef3     MOVWF     0xf3,0x0                                                                                        
002086   0e02     MOVLW     0x2                                                                                             
002088   cff3     MOVFF     0xff3,0xfdb                                                                                     
00208a   ffdb                                                                                                               
00208c   d023     BRA       0x20d4         	 	break;                                                                        C:\Embedded\Joystick\jinit.c
                                           	 case 2:                                                                        C:\Embedded\Joystick\jinit.c
00208e   0e41     MOVLW     0x41           	 	baud_rate = CAN_BAUD_250K;                                                    C:\Embedded\Joystick\jinit.c
002090   6ef3     MOVWF     0xf3,0x0                                                                                        
002092   0e02     MOVLW     0x2                                                                                             
002094   cff3     MOVFF     0xff3,0xfdb                                                                                     
002096   ffdb                                                                                                               
002098   d01d     BRA       0x20d4         	 	break;                                                                        C:\Embedded\Joystick\jinit.c
                                           	 case 3:                                                                        C:\Embedded\Joystick\jinit.c
00209a   0e43     MOVLW     0x43           	 	baud_rate = CAN_BAUD_125K;                                                    C:\Embedded\Joystick\jinit.c
00209c   6ef3     MOVWF     0xf3,0x0                                                                                        
00209e   0e02     MOVLW     0x2                                                                                             
0020a0   cff3     MOVFF     0xff3,0xfdb                                                                                     
0020a2   ffdb                                                                                                               
0020a4   d017     BRA       0x20d4         	 	break;                                                                        C:\Embedded\Joystick\jinit.c
                                           	 case 4:                                                                        C:\Embedded\Joystick\jinit.c
0020a6   0e44     MOVLW     0x44           	 	baud_rate = CAN_BAUD_100K;                                                    C:\Embedded\Joystick\jinit.c
0020a8   6ef3     MOVWF     0xf3,0x0                                                                                        
0020aa   0e02     MOVLW     0x2                                                                                             
0020ac   cff3     MOVFF     0xff3,0xfdb                                                                                     
0020ae   ffdb                                                                                                               
0020b0   d011     BRA       0x20d4         	 	break;                                                                        C:\Embedded\Joystick\jinit.c
                                           	 case 5:                                                                        C:\Embedded\Joystick\jinit.c
0020b2   0e49     MOVLW     0x49           	 	baud_rate = CAN_BAUD_50K;                                                     C:\Embedded\Joystick\jinit.c
0020b4   6ef3     MOVWF     0xf3,0x0                                                                                        
0020b6   0e02     MOVLW     0x2                                                                                             
0020b8   cff3     MOVFF     0xff3,0xfdb                                                                                     
0020ba   ffdb                                                                                                               
0020bc   d00b     BRA       0x20d4         	 	break;                                                                        C:\Embedded\Joystick\jinit.c
                                           	 case 6:                                                                        C:\Embedded\Joystick\jinit.c
0020be   0e58     MOVLW     0x58           	 	baud_rate = CAN_BAUD_20K;                                                     C:\Embedded\Joystick\jinit.c
0020c0   6ef3     MOVWF     0xf3,0x0                                                                                        
0020c2   0e02     MOVLW     0x2                                                                                             
0020c4   cff3     MOVFF     0xff3,0xfdb                                                                                     
0020c6   ffdb                                                                                                               
0020c8   d005     BRA       0x20d4         	 	break;                                                                        C:\Embedded\Joystick\jinit.c
                                           	 default:                                                                       C:\Embedded\Joystick\jinit.c
0020ca   0e41     MOVLW     0x41           	 	baud_rate = CAN_BAUD_250K;                                                    C:\Embedded\Joystick\jinit.c
0020cc   6ef3     MOVWF     0xf3,0x0                                                                                        
0020ce   0e02     MOVLW     0x2                                                                                             
0020d0   cff3     MOVFF     0xff3,0xfdb                                                                                     
0020d2   ffdb                                                                                                               
                                           	}                                                                               C:\Embedded\Joystick\jinit.c
                                                                                                                            C:\Embedded\Joystick\jinit.c
                                           //============Received messages===========================================       C:\Embedded\Joystick\jinit.c
                                            // Receive PDO 20X                                                              C:\Embedded\Joystick\jinit.c
0020d4   c18d     MOVFF     0x18d,0x18b     Id_p.Id_low 	= Id;				//low, high: to get around compiler problems...           C:\Embedded\Joystick\jinit.c
0020d6   f18b                                                                                                               
0020d8   0101     MOVLB     0x1             Id_p.Id_high	= 2;                                                               C:\Embedded\Joystick\jinit.c
0020da   6f8c     MOVWF     0x8c,0x1                                                                                        
0020dc   0e05     MOVLW     0x5             Id_p.Idword  <<=5;                                                              C:\Embedded\Joystick\jinit.c
0020de   90d8     BCF       0xd8,0x0,0x0                                                                                    
0020e0   378b     RLCF      0x8b,0x1,0x1                                                                                    
0020e2   378c     RLCF      0x8c,0x1,0x1                                                                                    
0020e4   06e8     DECF      0xe8,0x1,0x0                                                                                    
0020e6   e1fb     BNZ       0x20de                                                                                          
0020e8   c18c     MOVFF     0x18c,0x0       RXB_B [CAN_OPEN_PDO1].TXBSIDH = (Id_p.Idword  >> 8) & 0xFF;  //TXBSIDH<SD10....SD3> C:\Embedded\Joystick\jinit.c
0020ea   f000                                                                                                               
0020ec   6a01     CLRF      0x1,0x0                                                                                         
0020ee   5000     MOVF      0x0,0x0,0x0                                                                                     
0020f0   0101     MOVLB     0x1                                                                                             
0020f2   6f46     MOVWF     0x46,0x1                                                                                        
0020f4   0ee0     MOVLW     0xe0            RXB_B [CAN_OPEN_PDO1].TXBSIDL = Id_p.Idword & 0xE0;	  //TXBSIDL<SD2...SD0>,<EXIDE>=0=standard id C:\Embedded\Joystick\jinit.c
0020f6   0101     MOVLB     0x1                                                                                             
0020f8   158b     ANDWF     0x8b,0x0,0x1                                                                                    
0020fa   0101     MOVLB     0x1                                                                                             
0020fc   6f45     MOVWF     0x45,0x1                                                                                        
0020fe   6b47     CLRF      0x47,0x1        RXB_B [CAN_OPEN_PDO1].ST_B.STATO_TX_B = 0;                                      C:\Embedded\Joystick\jinit.c
                                                                                                                            C:\Embedded\Joystick\jinit.c
                                            // Receive PDO                                                                  C:\Embedded\Joystick\jinit.c
002100   c18d     MOVFF     0x18d,0x18b     Id_p.Id_low	= Id ;                                                              C:\Embedded\Joystick\jinit.c
002102   f18b                                                                                                               
002104   0101     MOVLB     0x1             Id_p.Id_high	= 3;                                                               C:\Embedded\Joystick\jinit.c
002106   0e03     MOVLW     0x3                                                                                             
002108   6f8c     MOVWF     0x8c,0x1                                                                                        
00210a   0e05     MOVLW     0x5             Id_p.Idword  <<=5;                                                              C:\Embedded\Joystick\jinit.c
00210c   90d8     BCF       0xd8,0x0,0x0                                                                                    
00210e   378b     RLCF      0x8b,0x1,0x1                                                                                    
002110   378c     RLCF      0x8c,0x1,0x1                                                                                    
002112   06e8     DECF      0xe8,0x1,0x0                                                                                    
002114   e1fb     BNZ       0x210c                                                                                          
002116   c18c     MOVFF     0x18c,0x0       RXB_B [CAN_OPEN_PDO2].TXBSIDH = (Id_p.Idword  >> 8) & 0xFF;                     C:\Embedded\Joystick\jinit.c
002118   f000                                                                                                               
00211a   6a01     CLRF      0x1,0x0                                                                                         
00211c   5000     MOVF      0x0,0x0,0x0                                                                                     
00211e   0101     MOVLB     0x1                                                                                             
002120   6f52     MOVWF     0x52,0x1                                                                                        
002122   0ee0     MOVLW     0xe0            RXB_B [CAN_OPEN_PDO2].TXBSIDL = Id_p.Idword & 0xE0;                             C:\Embedded\Joystick\jinit.c
002124   0101     MOVLB     0x1                                                                                             
002126   158b     ANDWF     0x8b,0x0,0x1                                                                                    
002128   0101     MOVLB     0x1                                                                                             
00212a   6f51     MOVWF     0x51,0x1                                                                                        
00212c   6b53     CLRF      0x53,0x1        RXB_B [CAN_OPEN_PDO2].ST_B.STATO_TX_B = 0;                                      C:\Embedded\Joystick\jinit.c
                                                                                                                            C:\Embedded\Joystick\jinit.c
                                            // Receive SDO (601H - 67F)                                                     C:\Embedded\Joystick\jinit.c
00212e   c18d     MOVFF     0x18d,0x18b     Id_p.Id_low 	= Id;				//low, high: get around compiler problems...              C:\Embedded\Joystick\jinit.c
002130   f18b                                                                                                               
002132   0101     MOVLB     0x1             Id_p.Id_high	= 6;                                                               C:\Embedded\Joystick\jinit.c
002134   0e06     MOVLW     0x6                                                                                             
002136   6f8c     MOVWF     0x8c,0x1                                                                                        
002138   0e05     MOVLW     0x5             Id_p.Idword  <<=5;                                                              C:\Embedded\Joystick\jinit.c
00213a   90d8     BCF       0xd8,0x0,0x0                                                                                    
00213c   378b     RLCF      0x8b,0x1,0x1                                                                                    
00213e   378c     RLCF      0x8c,0x1,0x1                                                                                    
002140   06e8     DECF      0xe8,0x1,0x0                                                                                    
002142   e1fb     BNZ       0x213a                                                                                          
002144   c18c     MOVFF     0x18c,0x0       RXB_B [CAN_OPEN_IdSdoRx].TXBSIDH = (Id_p.Idword  >> 8) & 0xFF;  //TXBSIDH<SD10....SD3> C:\Embedded\Joystick\jinit.c
002146   f000                                                                                                               
002148   6a01     CLRF      0x1,0x0                                                                                         
00214a   5000     MOVF      0x0,0x0,0x0                                                                                     
00214c   0101     MOVLB     0x1                                                                                             
00214e   6f5e     MOVWF     0x5e,0x1                                                                                        
002150   0ee0     MOVLW     0xe0            RXB_B [CAN_OPEN_IdSdoRx].TXBSIDL = Id_p.Idword & 0xE0;	  //TXBSIDL<SD2...SD0>,<EXIDE>=0=standard id C:\Embedded\Joystick\jinit.c
002152   0101     MOVLB     0x1                                                                                             
002154   158b     ANDWF     0x8b,0x0,0x1                                                                                    
002156   0101     MOVLB     0x1                                                                                             
002158   6f5d     MOVWF     0x5d,0x1                                                                                        
00215a   6b5f     CLRF      0x5f,0x1        RXB_B [CAN_OPEN_IdSdoRx].ST_B.STATO_TX_B = 0;                                   C:\Embedded\Joystick\jinit.c
                                                                                                                            C:\Embedded\Joystick\jinit.c
                                            // Recieve Network Managemente - NMT - (start, stop, pre-op, etc.)              C:\Embedded\Joystick\jinit.c
00215c   6b6a     CLRF      0x6a,0x1        RXB_B [CAN_OPEN_IdNet].TXBSIDH = 0x00;                                          C:\Embedded\Joystick\jinit.c
00215e   6b69     CLRF      0x69,0x1        RXB_B [CAN_OPEN_IdNet].TXBSIDL = 0x00;                                          C:\Embedded\Joystick\jinit.c
002160   6b6b     CLRF      0x6b,0x1        RXB_B [CAN_OPEN_IdNet].ST_B.STATO_TX_B = 0;                                     C:\Embedded\Joystick\jinit.c
                                                                                                                            C:\Embedded\Joystick\jinit.c
                                           //============Tansmission messages===========================================    C:\Embedded\Joystick\jinit.c
                                            // as master trasnmit the first RPDO 20X                                        C:\Embedded\Joystick\jinit.c
002162   c18d     MOVFF     0x18d,0x18b     Id_p.Id_low  = Id;				//make sure high bits are cleared                         C:\Embedded\Joystick\jinit.c
002164   f18b                                                                                                               
002166   0101     MOVLB     0x1             Id_p.Id_high = 2;                                                               C:\Embedded\Joystick\jinit.c
002168   0e02     MOVLW     0x2                                                                                             
00216a   6f8c     MOVWF     0x8c,0x1                                                                                        
00216c   0e05     MOVLW     0x5             Id_p.Idword  <<=5;                                                              C:\Embedded\Joystick\jinit.c
00216e   90d8     BCF       0xd8,0x0,0x0                                                                                    
002170   378b     RLCF      0x8b,0x1,0x1                                                                                    
002172   378c     RLCF      0x8c,0x1,0x1                                                                                    
002174   06e8     DECF      0xe8,0x1,0x0                                                                                    
002176   e1fb     BNZ       0x216e                                                                                          
002178   c18c     MOVFF     0x18c,0x0       TXB_B [CAN_OPEN_IdTx].TXBSIDH = (Id_p.Idword  >> 8) & 0xFF;                     C:\Embedded\Joystick\jinit.c
00217a   f000                                                                                                               
00217c   6a01     CLRF      0x1,0x0                                                                                         
00217e   5000     MOVF      0x0,0x0,0x0                                                                                     
002180   0101     MOVLB     0x1                                                                                             
002182   6f0a     MOVWF     0xa,0x1                                                                                         
002184   0ee0     MOVLW     0xe0            TXB_B [CAN_OPEN_IdTx].TXBSIDL = Id_p.Idword & 0xE0;                             C:\Embedded\Joystick\jinit.c
002186   0101     MOVLB     0x1                                                                                             
002188   158b     ANDWF     0x8b,0x0,0x1                                                                                    
00218a   0101     MOVLB     0x1                                                                                             
00218c   6f09     MOVWF     0x9,0x1                                                                                         
00218e   0e02     MOVLW     0x2             TXB_B [CAN_OPEN_IdTx].TXBDLC  = 2; 		//potetiometer values are signed ints      C:\Embedded\Joystick\jinit.c
002190   6f08     MOVWF     0x8,0x1                                                                                         
002192   6b0b     CLRF      0xb,0x1         TXB_B [CAN_OPEN_IdTx].ST_B.STATO_TX_B = 0;                                      C:\Embedded\Joystick\jinit.c
                                                                                                                            C:\Embedded\Joystick\jinit.c
                                            // Error Protocol (heartbeat, boot) (Id + 0x700)                                C:\Embedded\Joystick\jinit.c
002194   c18d     MOVFF     0x18d,0x18b     Id_p.Id_low    = Id;                                                            C:\Embedded\Joystick\jinit.c
002196   f18b                                                                                                               
002198   0101     MOVLB     0x1             Id_p.Id_high   = 0x7;                                                           C:\Embedded\Joystick\jinit.c
00219a   0e07     MOVLW     0x7                                                                                             
00219c   6f8c     MOVWF     0x8c,0x1                                                                                        
00219e   0e05     MOVLW     0x5             Id_p.Idword  <<=5;                                                              C:\Embedded\Joystick\jinit.c
0021a0   90d8     BCF       0xd8,0x0,0x0                                                                                    
0021a2   378b     RLCF      0x8b,0x1,0x1                                                                                    
0021a4   378c     RLCF      0x8c,0x1,0x1                                                                                    
0021a6   06e8     DECF      0xe8,0x1,0x0                                                                                    
0021a8   e1fb     BNZ       0x21a0                                                                                          
0021aa   c18c     MOVFF     0x18c,0x0       TXB_B [CAN_OPEN_IdErr].TXBSIDH = (Id_p.Idword  >> 8) & 0xFF;                    C:\Embedded\Joystick\jinit.c
0021ac   f000                                                                                                               
0021ae   6a01     CLRF      0x1,0x0                                                                                         
0021b0   5000     MOVF      0x0,0x0,0x0                                                                                     
0021b2   0101     MOVLB     0x1                                                                                             
0021b4   6f22     MOVWF     0x22,0x1                                                                                        
0021b6   0ee0     MOVLW     0xe0            TXB_B [CAN_OPEN_IdErr].TXBSIDL = Id_p.Idword & 0xE0;                            C:\Embedded\Joystick\jinit.c
0021b8   0101     MOVLB     0x1                                                                                             
0021ba   158b     ANDWF     0x8b,0x0,0x1                                                                                    
0021bc   0101     MOVLB     0x1                                                                                             
0021be   6f21     MOVWF     0x21,0x1                                                                                        
0021c0   0e01     MOVLW     0x1             TXB_B [CAN_OPEN_IdErr].TXBDLC  = 1;                                             C:\Embedded\Joystick\jinit.c
0021c2   6f20     MOVWF     0x20,0x1                                                                                        
0021c4   6b1f     CLRF      0x1f,0x1        TXB_B [CAN_OPEN_IdErr].TXBD0  = 0x0;                                            C:\Embedded\Joystick\jinit.c
0021c6   6b1e     CLRF      0x1e,0x1        TXB_B [CAN_OPEN_IdErr].TXBD1  = 0x0;                                            C:\Embedded\Joystick\jinit.c
0021c8   6b1d     CLRF      0x1d,0x1        TXB_B [CAN_OPEN_IdErr].TXBD2  = 0x0;                                            C:\Embedded\Joystick\jinit.c
0021ca   6b1c     CLRF      0x1c,0x1        TXB_B [CAN_OPEN_IdErr].TXBD3  = 0x0;                                            C:\Embedded\Joystick\jinit.c
0021cc   6b1b     CLRF      0x1b,0x1        TXB_B [CAN_OPEN_IdErr].TXBD4  = 0x0;                                            C:\Embedded\Joystick\jinit.c
0021ce   6b1a     CLRF      0x1a,0x1        TXB_B [CAN_OPEN_IdErr].TXBD5  = 0x0;                                            C:\Embedded\Joystick\jinit.c
0021d0   6b19     CLRF      0x19,0x1        TXB_B [CAN_OPEN_IdErr].TXBD6  = 0x0;                                            C:\Embedded\Joystick\jinit.c
0021d2   6b18     CLRF      0x18,0x1        TXB_B [CAN_OPEN_IdErr].TXBD7  = 0x0;                                            C:\Embedded\Joystick\jinit.c
0021d4   6b23     CLRF      0x23,0x1        TXB_B [CAN_OPEN_IdErr].ST_B.STATO_TX_B = 0;                                     C:\Embedded\Joystick\jinit.c
                                                                                                                            C:\Embedded\Joystick\jinit.c
                                            // Emergency Protocol(80H)                                                      C:\Embedded\Joystick\jinit.c
0021d6   0e80     MOVLW     0x80            Id_p.Id_low  = Id + 0x80;                                                       C:\Embedded\Joystick\jinit.c
0021d8   0101     MOVLB     0x1                                                                                             
0021da   258d     ADDWF     0x8d,0x0,0x1                                                                                    
0021dc   0101     MOVLB     0x1                                                                                             
0021de   6f8b     MOVWF     0x8b,0x1                                                                                        
0021e0   6b8c     CLRF      0x8c,0x1        Id_p.Id_high = 0;                                                               C:\Embedded\Joystick\jinit.c
0021e2   0e05     MOVLW     0x5             Id_p.Idword  <<=5;                                                              C:\Embedded\Joystick\jinit.c
0021e4   90d8     BCF       0xd8,0x0,0x0                                                                                    
0021e6   378b     RLCF      0x8b,0x1,0x1                                                                                    
0021e8   378c     RLCF      0x8c,0x1,0x1                                                                                    
0021ea   06e8     DECF      0xe8,0x1,0x0                                                                                    
0021ec   e1fb     BNZ       0x21e4                                                                                          
0021ee   c18c     MOVFF     0x18c,0x0       TXB_B [CAN_OPEN_IdEMCY].TXBSIDH = (Id_p.Idword  >> 8) & 0xFF;                   C:\Embedded\Joystick\jinit.c
0021f0   f000                                                                                                               
0021f2   6a01     CLRF      0x1,0x0                                                                                         
0021f4   5000     MOVF      0x0,0x0,0x0                                                                                     
0021f6   0101     MOVLB     0x1                                                                                             
0021f8   6f2e     MOVWF     0x2e,0x1                                                                                        
0021fa   0ee0     MOVLW     0xe0            TXB_B [CAN_OPEN_IdEMCY].TXBSIDL = Id_p.Idword & 0xE0;                           C:\Embedded\Joystick\jinit.c
0021fc   0101     MOVLB     0x1                                                                                             
0021fe   158b     ANDWF     0x8b,0x0,0x1                                                                                    
002200   0101     MOVLB     0x1                                                                                             
002202   6f2d     MOVWF     0x2d,0x1                                                                                        
002204   0e08     MOVLW     0x8             TXB_B [CAN_OPEN_IdEMCY].TXBDLC  = 8;                                            C:\Embedded\Joystick\jinit.c
002206   6f2c     MOVWF     0x2c,0x1                                                                                        
002208   6b2f     CLRF      0x2f,0x1        TXB_B [CAN_OPEN_IdEMCY].ST_B.STATO_TX_B = 0;                                    C:\Embedded\Joystick\jinit.c
                                                                                                                            C:\Embedded\Joystick\jinit.c
                                            // Sdo out (580H - 5FF)                                                         C:\Embedded\Joystick\jinit.c
00220a   0e80     MOVLW     0x80            Id_p.Id_low    = Id + 0x80;                                                     C:\Embedded\Joystick\jinit.c
00220c   0101     MOVLB     0x1                                                                                             
00220e   258d     ADDWF     0x8d,0x0,0x1                                                                                    
002210   0101     MOVLB     0x1                                                                                             
002212   6f8b     MOVWF     0x8b,0x1                                                                                        
002214   0e05     MOVLW     0x5             Id_p.Id_high	= 5;                                                               C:\Embedded\Joystick\jinit.c
002216   6f8c     MOVWF     0x8c,0x1                                                                                        
002218   90d8     BCF       0xd8,0x0,0x0    Id_p.Idword  <<=5;							// function-code = 1011...                             C:\Embedded\Joystick\jinit.c
00221a   378b     RLCF      0x8b,0x1,0x1                                                                                    
00221c   378c     RLCF      0x8c,0x1,0x1                                                                                    
00221e   06e8     DECF      0xe8,0x1,0x0                                                                                    
002220   e1fb     BNZ       0x2218                                                                                          
002222   c18c     MOVFF     0x18c,0x0       TXB_B [CAN_OPEN_IdSdoTx].TXBSIDH = (Id_p.Idword  >> 8) & 0xFF;                  C:\Embedded\Joystick\jinit.c
002224   f000                                                                                                               
002226   6a01     CLRF      0x1,0x0                                                                                         
002228   5000     MOVF      0x0,0x0,0x0                                                                                     
00222a   0101     MOVLB     0x1                                                                                             
00222c   6f16     MOVWF     0x16,0x1                                                                                        
00222e   0ee0     MOVLW     0xe0            TXB_B [CAN_OPEN_IdSdoTx].TXBSIDL = Id_p.Idword & 0xE0;                          C:\Embedded\Joystick\jinit.c
002230   0101     MOVLB     0x1                                                                                             
002232   158b     ANDWF     0x8b,0x0,0x1                                                                                    
002234   0101     MOVLB     0x1                                                                                             
002236   6f15     MOVWF     0x15,0x1                                                                                        
002238   0e08     MOVLW     0x8             TXB_B [CAN_OPEN_IdSdoTx].TXBDLC  = 8;                                           C:\Embedded\Joystick\jinit.c
00223a   6f14     MOVWF     0x14,0x1                                                                                        
00223c   6b13     CLRF      0x13,0x1        TXB_B [CAN_OPEN_IdSdoTx].COMMAND.b = 0;                                         C:\Embedded\Joystick\jinit.c
00223e   6b11     CLRF      0x11,0x1        TXB_B [CAN_OPEN_IdSdoTx].INDEX = 0;                                             C:\Embedded\Joystick\jinit.c
002240   6b12     CLRF      0x12,0x1                                                                                        
002242   6b10     CLRF      0x10,0x1        TXB_B [CAN_OPEN_IdSdoTx].SUB_INDEX = 0;                                         C:\Embedded\Joystick\jinit.c
002244   6b0f     CLRF      0xf,0x1         TXB_B [CAN_OPEN_IdSdoTx].B0 = 0;                                                C:\Embedded\Joystick\jinit.c
002246   6b0e     CLRF      0xe,0x1         TXB_B [CAN_OPEN_IdSdoTx].B1 = 0;                                                C:\Embedded\Joystick\jinit.c
002248   6b0d     CLRF      0xd,0x1         TXB_B [CAN_OPEN_IdSdoTx].B2 = 0;                                                C:\Embedded\Joystick\jinit.c
00224a   6b0c     CLRF      0xc,0x1         TXB_B [CAN_OPEN_IdSdoTx].B3 = 0;                                                C:\Embedded\Joystick\jinit.c
00224c   6b17     CLRF      0x17,0x1        TXB_B [CAN_OPEN_IdSdoTx].ST_B.STATO_TX_B = 0;                                   C:\Embedded\Joystick\jinit.c
                                           //=======================================================                        C:\Embedded\Joystick\jinit.c
                                                                                                                            C:\Embedded\Joystick\jinit.c
                                            // start CAN module                                                             C:\Embedded\Joystick\jinit.c
00224e   0e30     MOVLW     0x30            CANCON 	= 0x30;					// ERRATA, go through disable mode before config....?       C:\Embedded\Joystick\jinit.c
002250   6e6f     MOVWF     0x6f,0x0                                                                                        
002252   aa6e     BTFSS     0x6e,0x5,0x0    while (CANSTATbits.OPMODE0 == 0);	// wait for the module to enter disable mode  C:\Embedded\Joystick\jinit.c
002254   d7fe     BRA       0x2252                                                                                          
                                                                                                                            C:\Embedded\Joystick\jinit.c
002256   0e80     MOVLW     0x80            CANCON 	= 0x80;					//gi:bit 7-5: Configuration mode,ABAT=0 = normal operation  C:\Embedded\Joystick\jinit.c
002258   6e6f     MOVWF     0x6f,0x0                                                                                        
00225a   ae6e     BTFSS     0x6e,0x7,0x0    while (CANSTATbits.OPMODE2 == 0); 	// wait for the module to enter configuration mode C:\Embedded\Joystick\jinit.c
00225c   d7fe     BRA       0x225a                                                                                          
                                                                                                                            C:\Embedded\Joystick\jinit.c
00225e   0e02     MOVLW     0x2             BRGCON1 	= baud_rate;                                                           C:\Embedded\Joystick\jinit.c
002260   50db     MOVF      0xdb,0x0,0x0                                                                                    
002262   6e70     MOVWF     0x70,0x0                                                                                        
002264   0ebf     MOVLW     0xbf            BRGCON2 	= 0xBF;                                                                C:\Embedded\Joystick\jinit.c
002266   6e71     MOVWF     0x71,0x0                                                                                        
002268   0e07     MOVLW     0x7             BRGCON3 	= 0x07;                                                                C:\Embedded\Joystick\jinit.c
00226a   6e72     MOVWF     0x72,0x0                                                                                        
                                                                                                                            C:\Embedded\Joystick\jinit.c
00226c   0e20     MOVLW     0x20            CIOCON 	= 0x20;  	//gi:CAN IO pin                                               C:\Embedded\Joystick\jinit.c
00226e   6e73     MOVWF     0x73,0x0                                                                                        
002270   6a77     CLRF      0x77,0x0        ECANCON	= 0x0;		//bit 7,6 = 0 = legacy mode 0, other bits unused in this mode   C:\Embedded\Joystick\jinit.c
                                                                                                                            C:\Embedded\Joystick\jinit.c
                                           // Init filters                                                                  C:\Embedded\Joystick\jinit.c
002272   010f     MOVLB     0xf             RXM0SIDH = 0xFF;                                                                C:\Embedded\Joystick\jinit.c
002274   6918     SETF      0x18,0x1                                                                                        
002276   6919     SETF      0x19,0x1        RXM0SIDL = 0xFF;                                                                C:\Embedded\Joystick\jinit.c
002278   6b1a     CLRF      0x1a,0x1        RXM0EIDH = 0x00;                                                                C:\Embedded\Joystick\jinit.c
00227a   6b1b     CLRF      0x1b,0x1        RXM0EIDL = 0x00;                                                                C:\Embedded\Joystick\jinit.c
                                                                                                                            C:\Embedded\Joystick\jinit.c
00227c   691c     SETF      0x1c,0x1        RXM1SIDH = 0xFF;                                                                C:\Embedded\Joystick\jinit.c
00227e   691d     SETF      0x1d,0x1        RXM1SIDL = 0xFF;                                                                C:\Embedded\Joystick\jinit.c
002280   6b1e     CLRF      0x1e,0x1        RXM1EIDH = 0x00;                                                                C:\Embedded\Joystick\jinit.c
002282   6b1f     CLRF      0x1f,0x1        RXM1EIDL = 0x00;                                                                C:\Embedded\Joystick\jinit.c
                                                                                                                            C:\Embedded\Joystick\jinit.c
002284   6b03     CLRF      0x3,0x1         RXF0EIDL = 0;RXF0EIDH = 0;                                                      C:\Embedded\Joystick\jinit.c
002286   6b02     CLRF      0x2,0x1                                                                                         
002288   6b07     CLRF      0x7,0x1         RXF1EIDL = 0;RXF1EIDH = 0;                                                      C:\Embedded\Joystick\jinit.c
00228a   6b06     CLRF      0x6,0x1                                                                                         
00228c   6b0b     CLRF      0xb,0x1         RXF2EIDL = 0;RXF2EIDH = 0;                                                      C:\Embedded\Joystick\jinit.c
00228e   6b0a     CLRF      0xa,0x1                                                                                         
002290   6b0f     CLRF      0xf,0x1         RXF3EIDL = 0;RXF3EIDH = 0;                                                      C:\Embedded\Joystick\jinit.c
002292   6b0e     CLRF      0xe,0x1                                                                                         
002294   6b13     CLRF      0x13,0x1        RXF4EIDL = 0;RXF4EIDH = 0;                                                      C:\Embedded\Joystick\jinit.c
002296   6b12     CLRF      0x12,0x1                                                                                        
002298   6b17     CLRF      0x17,0x1        RXF5EIDL = 0;RXF5EIDH = 0;                                                      C:\Embedded\Joystick\jinit.c
00229a   6b16     CLRF      0x16,0x1                                                                                        
                                                                                                                            C:\Embedded\Joystick\jinit.c
00229c   8a60     BSF       0x60,0x5,0x0    RXB0CONbits.RXM0 = 1;                                                           C:\Embedded\Joystick\jinit.c
00229e   8b50     BSF       0x50,0x5,0x1    RXB1CONbits.RXM0 = 1;                                                           C:\Embedded\Joystick\jinit.c
0022a0   8460     BSF       0x60,0x2,0x0    RXB0CONbits.RXB0DBEN = 1;                                                       C:\Embedded\Joystick\jinit.c
                                                                                                                            C:\Embedded\Joystick\jinit.c
0022a2   c146     MOVFF     0x146,0xf00     RXF0SIDH = RXB_B [CAN_OPEN_PDO1].TXBSIDH;                                       C:\Embedded\Joystick\jinit.c
0022a4   ff00                                                                                                               
0022a6   c145     MOVFF     0x145,0xf01     RXF0SIDL = RXB_B [CAN_OPEN_PDO1].TXBSIDL;                                       C:\Embedded\Joystick\jinit.c
0022a8   ff01                                                                                                               
                                                                                                                            C:\Embedded\Joystick\jinit.c
0022aa   c152     MOVFF     0x152,0xf04     RXF1SIDH = RXB_B [CAN_OPEN_PDO2].TXBSIDH;                                       C:\Embedded\Joystick\jinit.c
0022ac   ff04                                                                                                               
0022ae   c151     MOVFF     0x151,0xf05     RXF1SIDL = RXB_B [CAN_OPEN_PDO2].TXBSIDL;                                       C:\Embedded\Joystick\jinit.c
0022b0   ff05                                                                                                               
                                                                                                                            C:\Embedded\Joystick\jinit.c
0022b2   c16a     MOVFF     0x16a,0xf08     RXF2SIDH = RXB_B [CAN_OPEN_IdNet].TXBSIDH;                                      C:\Embedded\Joystick\jinit.c
0022b4   ff08                                                                                                               
0022b6   c169     MOVFF     0x169,0xf09     RXF2SIDL = RXB_B [CAN_OPEN_IdNet].TXBSIDL;                                      C:\Embedded\Joystick\jinit.c
0022b8   ff09                                                                                                               
                                                                                                                            C:\Embedded\Joystick\jinit.c
0022ba   c15e     MOVFF     0x15e,0xf0c     RXF3SIDH = RXB_B [CAN_OPEN_IdSdoRx].TXBSIDH;                                    C:\Embedded\Joystick\jinit.c
0022bc   ff0c                                                                                                               
0022be   c15d     MOVFF     0x15d,0xf0d     RXF3SIDL = RXB_B [CAN_OPEN_IdSdoRx].TXBSIDL;                                    C:\Embedded\Joystick\jinit.c
0022c0   ff0d                                                                                                               
                                                                                                                            C:\Embedded\Joystick\jinit.c
                                                                                                                            C:\Embedded\Joystick\jinit.c
                                            // Unused data                                                                  C:\Embedded\Joystick\jinit.c
0022c2   cf0c     MOVFF     0xf0c,0xf10     RXF4SIDH = RXF3SIDH;                                                            C:\Embedded\Joystick\jinit.c
0022c4   ff10                                                                                                               
0022c6   cf0d     MOVFF     0xf0d,0xf11     RXF4SIDL = RXF3SIDL;                                                            C:\Embedded\Joystick\jinit.c
0022c8   ff11                                                                                                               
0022ca   cf0c     MOVFF     0xf0c,0xf14     RXF5SIDH = RXF3SIDH;                                                            C:\Embedded\Joystick\jinit.c
0022cc   ff14                                                                                                               
0022ce   cf0d     MOVFF     0xf0d,0xf15     RXF5SIDL = RXF3SIDL;                                                            C:\Embedded\Joystick\jinit.c
0022d0   ff15                                                                                                               
                                                                                                                            C:\Embedded\Joystick\jinit.c
0022d2   6e6f     MOVWF     0x6f,0x0        CANCON = 0x20;						// ERRATA, go through disable mode before normal....?       C:\Embedded\Joystick\jinit.c
0022d4   6a6f     CLRF      0x6f,0x0        CANCON = 0x00;						// End init                                                 C:\Embedded\Joystick\jinit.c
0022d6   be6e     BTFSC     0x6e,0x7,0x0    while (CANSTATbits.OPMODE2 == 1); 	// wait for the module to enter normal mode  C:\Embedded\Joystick\jinit.c
0022d8   d7fe     BRA       0x22d6                                                                                          
                                                                                                                            C:\Embedded\Joystick\jinit.c
0022da   0ec5     MOVLW     0xc5            T0CON = 0b11000101;		//timer0 on, 8 bit, internal,prescale 1:64                 C:\Embedded\Joystick\jinit.c
0022dc   6ed5     MOVWF     0xd5,0x0                                                                                        
0022de   0ea0     MOVLW     0xa0            TMR0L = 0x0 - Timer0tick_ms;                                                    C:\Embedded\Joystick\jinit.c
0022e0   6ed6     MOVWF     0xd6,0x0                                                                                        
                                                                                                                            C:\Embedded\Joystick\jinit.c
0022e2   0eb5     MOVLW     0xb5            T1CON = 0b10110101;			//timer1 RD16=on,prescale=8,t1psc=off,no ext sync,internal clk,tmr1 on C:\Embedded\Joystick\jinit.c
0022e4   6ecd     MOVWF     0xcd,0x0                                                                                        
0022e6   0101     MOVLB     0x1             T1.T1_int = Timer1tick_ms;                                                      C:\Embedded\Joystick\jinit.c
0022e8   0ef3     MOVLW     0xf3                                                                                            
0022ea   6f97     MOVWF     0x97,0x1                                                                                        
0022ec   0efc     MOVLW     0xfc                                                                                            
0022ee   6f98     MOVWF     0x98,0x1                                                                                        
0022f0   c198     MOVFF     0x198,0xfcf     TMR1H = T1.T1high_byte;                                                         C:\Embedded\Joystick\jinit.c
0022f2   ffcf                                                                                                               
0022f4   c197     MOVFF     0x197,0xfce     TMR1L = T1.T1low_byte;                                                          C:\Embedded\Joystick\jinit.c
0022f6   ffce                                                                                                               
                                                                                                                            C:\Embedded\Joystick\jinit.c
0022f8   0101     MOVLB     0x1             ultimo_out = 0;                                                                 C:\Embedded\Joystick\jinit.c
0022fa   6ba1     CLRF      0xa1,0x1                                                                                        
0022fc   8cf2     BSF       0xf2,0x6,0x0    INTCONbits.PEIE = 1;		// Enable peripheral interrupts                           C:\Embedded\Joystick\jinit.c
0022fe   8ef2     BSF       0xf2,0x7,0x0    INTCONbits.GIE = 1;		// Enable all interrupts                                   C:\Embedded\Joystick\jinit.c
002300   6aa5     CLRF      0xa5,0x0        IPR3 = 0;					//CAN low interrupt priority                                      C:\Embedded\Joystick\jinit.c
002302   0e03     MOVLW     0x3             PIE3 = 0x3;				//CAN interrupts allowed in mode 0                               C:\Embedded\Joystick\jinit.c
002304   6ea3     MOVWF     0xa3,0x0                                                                                        
                                                                                                                            C:\Embedded\Joystick\jinit.c
002306   0101     MOVLB     0x1             SDO_Process = CAN_NOTHING;                                                      C:\Embedded\Joystick\jinit.c
002308   6b92     CLRF      0x92,0x1                                                                                        
00230a   0101     MOVLB     0x1             uCO_DevErrReg.ebyte = 0;		//no errors                                           C:\Embedded\Joystick\jinit.c
00230c   6b85     CLRF      0x85,0x1                                                                                        
00230e   0101     MOVLB     0x1             ERROR_CODE.err_high = 0;                                                        C:\Embedded\Joystick\jinit.c
002310   6b9f     CLRF      0x9f,0x1                                                                                        
002312   6ba0     CLRF      0xa0,0x1        ERROR_CODE.err_low = 0;                                                         C:\Embedded\Joystick\jinit.c
002314   0101     MOVLB     0x1             PDO_enable.PDO_byte = PDOS_ENABLED;                                             C:\Embedded\Joystick\jinit.c
002316   0e1f     MOVLW     0x1f                                                                                            
002318   6f84     MOVWF     0x84,0x1                                                                                        
00231a   0100     MOVLB     0x0             jIO_switch1_value = 0;                                                          C:\Embedded\Joystick\jinit.c
00231c   6bf0     CLRF      0xf0,0x1                                                                                        
00231e   0100     MOVLB     0x0             jIO_Potentiometer_1 = 0;                                                        C:\Embedded\Joystick\jinit.c
002320   6bf7     CLRF      0xf7,0x1                                                                                        
002322   6bf8     CLRF      0xf8,0x1                                                                                        
002324   0100     MOVLB     0x0             jIO_Potentiometer_2 = 0;                                                        C:\Embedded\Joystick\jinit.c
002326   6bf9     CLRF      0xf9,0x1                                                                                        
002328   6bfa     CLRF      0xfa,0x1                                                                                        
00232a   0100     MOVLB     0x0             jIO_Potentiometer_3 = 0;                                                        C:\Embedded\Joystick\jinit.c
00232c   6bfb     CLRF      0xfb,0x1                                                                                        
00232e   6bfc     CLRF      0xfc,0x1                                                                                        
002330   0100     MOVLB     0x0             jIO_Potentiometer_4 = 0;                                                        C:\Embedded\Joystick\jinit.c
002332   6bfd     CLRF      0xfd,0x1                                                                                        
002334   6bfe     CLRF      0xfe,0x1                                                                                        
002336   0101     MOVLB     0x1             next_PDO = 1;                                                                   C:\Embedded\Joystick\jinit.c
002338   0e01     MOVLW     0x1                                                                                             
00233a   6fb1     MOVWF     0xb1,0x1                                                                                        
00233c   0101     MOVLB     0x1             sendPDO_count = PDO_COUNT;                                                      C:\Embedded\Joystick\jinit.c
00233e   0ea0     MOVLW     0xa0                                                                                            
002340   6f9d     MOVWF     0x9d,0x1                                                                                        
002342   0e0f     MOVLW     0xf                                                                                             
002344   6f9e     MOVWF     0x9e,0x1                                                                                        
002346   0101     MOVLB     0x1             uCO_DevErrReg.GENERIC = TRUE;                                                   C:\Embedded\Joystick\jinit.c
002348   8185     BSF       0x85,0x0,0x1                                                                                    
00234a   0101     MOVLB     0x1             ERROR_CODE.err_high = 0;                                                        C:\Embedded\Joystick\jinit.c
00234c   6b9f     CLRF      0x9f,0x1                                                                                        
00234e   6ba0     CLRF      0xa0,0x1        ERROR_CODE.err_low = 0;                                                         C:\Embedded\Joystick\jinit.c
                                             //SendEmergency ();		//generic error                                           C:\Embedded\Joystick\jinit.c
002350   0101     MOVLB     0x1             uCO_DevErrReg.GENERIC = FALSE;                                                  C:\Embedded\Joystick\jinit.c
002352   9185     BCF       0x85,0x0,0x1                                                                                    
002354   ece4     CALL      0x27c8,0x0      INIT_RT();                                                                      C:\Embedded\Joystick\jinit.c
002356   f013                                                                                                               
002358   0101     MOVLB     0x1             z_master = MASTER_OR_SLAVE;			// initialization finishes depending on master or slave C:\Embedded\Joystick\jinit.c
00235a   0e01     MOVLW     0x1                                                                                             
00235c   6fae     MOVWF     0xae,0x1                                                                                        
                                                                                                                            C:\Embedded\Joystick\jinit.c
00235e   51ae     MOVF      0xae,0x0,0x1    if (z_master)                                                                   C:\Embedded\Joystick\jinit.c
002360   e00b     BZ        0x2378                                                                                          
                                            {                                                                               C:\Embedded\Joystick\jinit.c
002362   0101     MOVLB     0x1             	StatoUnita = CAN_STATE_OPERATIONAL;                                            C:\Embedded\Joystick\jinit.c
002364   0e05     MOVLW     0x5                                                                                             
002366   6ffb     MOVWF     0xfb,0x1                                                                                        
002368   0101     MOVLB     0x1            	z_master_initializing = TRUE;                                                   C:\Embedded\Joystick\jinit.c
00236a   0e01     MOVLW     0x1                                                                                             
00236c   6faf     MOVWF     0xaf,0x1                                                                                        
00236e   c1a8     MOVFF     0x1a8,0x1b0    	z_slave_count = z_number_of_nodes;                                              C:\Embedded\Joystick\jinit.c
002370   f1b0                                                                                                               
002372   ec15     CALL      0x102a,0x0     	initialize_slaves();                                                            C:\Embedded\Joystick\jinit.c
002374   f008                                                                                                               
                                            }                                                                               C:\Embedded\Joystick\jinit.c
002376   d007     BRA       0x2386          else                                                                            C:\Embedded\Joystick\jinit.c
                                            {                                                                               C:\Embedded\Joystick\jinit.c
002378   0101     MOVLB     0x1            	StatoUnita = CAN_STATE_PREOPERATIONAL;                                          C:\Embedded\Joystick\jinit.c
00237a   0e7f     MOVLW     0x7f                                                                                            
00237c   6ffb     MOVWF     0xfb,0x1                                                                                        
00237e   ecba     CALL      0x1374,0x0      	SendBoot();                                                                    C:\Embedded\Joystick\jinit.c
002380   f009                                                                                                               
002382   ec40     CALL      0x1080,0x0      	CanOut ();                                                                     C:\Embedded\Joystick\jinit.c
002384   f008                                                                                                               
                                            }                                                                               C:\Embedded\Joystick\jinit.c
                                                                                                                            C:\Embedded\Joystick\jinit.c
002386   0e05     MOVLW     0x5            }                                                                                C:\Embedded\Joystick\jinit.c
002388   5ce1     SUBWF     0xe1,0x0,0x0                                                                                    
00238a   e202     BC        0x2390                                                                                          
00238c   6ae1     CLRF      0xe1,0x0                                                                                        
00238e   52e5     MOVF      0xe5,0x1,0x0                                                                                    
002390   6ee1     MOVWF     0xe1,0x0                                                                                        
002392   52e5     MOVF      0xe5,0x1,0x0                                                                                    
002394   cfe7     MOVFF     0xfe7,0xfd9                                                                                     
002396   ffd9                                                                                                               
002398   0012     RETURN    0x0                                                                                             
                                           /* ------------------------------------------------------------------------------------------------------ */ C:\Embedded\Joystick\jmain.c
                                           // Active CANOpen node controller of a JOYSTICK                                  C:\Embedded\Joystick\jmain.c
                                           // Programmer:	Gino Isla for Lambda Sistemi, Milano                              C:\Embedded\Joystick\jmain.c
                                           // Created: 	04-06-2007	Version 1.0                                              C:\Embedded\Joystick\jmain.c
                                           // Tools:		MPLAB v. 7.40, C18 v. 3.04                                            C:\Embedded\Joystick\jmain.c
                                           // Updates:		                                                                    C:\Embedded\Joystick\jmain.c
                                           /* ------------------------------------------------------------------------------------------------------ */ C:\Embedded\Joystick\jmain.c
                                                                                                                            C:\Embedded\Joystick\jmain.c
                                                                                                                            C:\Embedded\Joystick\jmain.c
                                           /* ------------------------------------------- Include files: ------------------------------------------- */ C:\Embedded\Joystick\jmain.c
                                           #include "jpic_include.h"		/* include correct symbols for this processor */      C:\Embedded\Joystick\jmain.c
                                           #include "jconfig.h"                                                             C:\Embedded\Joystick\jmain.c
                                           #include "jcan.h"                                                                C:\Embedded\Joystick\jmain.c
                                           #include "jprototype.h"                                                          C:\Embedded\Joystick\jmain.c
                                           #include "japplication_data.h"                                                   C:\Embedded\Joystick\jmain.c
                                           #include "jDS401_errors.DEF"                                                     C:\Embedded\Joystick\jmain.c
                                           #include "jdict.h"                                                               C:\Embedded\Joystick\jmain.c
                                           #include "jProfile_data.h"                                                       C:\Embedded\Joystick\jmain.c
                                           //                                                                               C:\Embedded\Joystick\jmain.c
                                           /* ------------------------------------------- Configuration bits --------------------------------------- */ C:\Embedded\Joystick\jmain.c
                                                                                                                            C:\Embedded\Joystick\jmain.c
                                           //#define UnitTest                                                               C:\Embedded\Joystick\jmain.c
                                                                                                                            C:\Embedded\Joystick\jmain.c
                                           #pragma udata program_data				//paging to solve problem with too large data space C:\Embedded\Joystick\jmain.c
                                           M_TXB_BUFF TXB_B[MAX_CAN_OUT];                                                   C:\Embedded\Joystick\jmain.c
                                           M_TXB_BUFF RXB_B[MAX_CAN_IN];                                                    C:\Embedded\Joystick\jmain.c
                                           M_PDO_ENABLE PDO_enable;                                                         C:\Embedded\Joystick\jmain.c
                                           M_ERROR_REGISTER uCO_DevErrReg;	//this is OD object 0x1001,0                     C:\Embedded\Joystick\jmain.c
                                           M_MULTIPLEXOR multiplexor;                                                       C:\Embedded\Joystick\jmain.c
                                           extern unsigned char T0_1ms;                                                     C:\Embedded\Joystick\jmain.c
                                                                                                                            C:\Embedded\Joystick\jmain.c
                                           M_LONGID Id_p;                                                                   C:\Embedded\Joystick\jmain.c
                                           char StatoUnita = 0;				// Stato unita                                           C:\Embedded\Joystick\jmain.c
                                           unsigned int Id;                                                                 C:\Embedded\Joystick\jmain.c
                                           unsigned int Index;                                                              C:\Embedded\Joystick\jmain.c
                                           unsigned char SubIndex;                                                          C:\Embedded\Joystick\jmain.c
                                           unsigned char SDO_Process;                                                       C:\Embedded\Joystick\jmain.c
                                           unsigned char SDO_RX_INDEX;                                                      C:\Embedded\Joystick\jmain.c
                                           unsigned char toggle;                                                            C:\Embedded\Joystick\jmain.c
                                           unsigned int  downloadbytes;                                                     C:\Embedded\Joystick\jmain.c
                                           M_TIMER_1_CONVERT T1;                                                            C:\Embedded\Joystick\jmain.c
                                           M_HEARTBEAT heartbeat_count;                                                     C:\Embedded\Joystick\jmain.c
                                           M_HEARTBEAT heartbeat_rate;                                                      C:\Embedded\Joystick\jmain.c
                                           unsigned int sendPDO_count;                                                      C:\Embedded\Joystick\jmain.c
                                           M_ERROR_CODE ERROR_CODE;				//dictionary object 0x604E	---> SEE DS-408 SECTION 5.2, p.22 for additional errros C:\Embedded\Joystick\jmain.c
                                           unsigned char ten_millisec_count = 10;                                           C:\Embedded\Joystick\jmain.c
                                           unsigned char ultimo_out;                                                        C:\Embedded\Joystick\jmain.c
                                           char   bus_passive = 0;                                                          C:\Embedded\Joystick\jmain.c
                                           unsigned int z_SDO_timer;				//SDO sanity time out                               C:\Embedded\Joystick\jmain.c
                                                                                                                            C:\Embedded\Joystick\jmain.c
                                           //global variables for writing to external EEPROM                                C:\Embedded\Joystick\jmain.c
                                           unsigned char z_bytes_for_xfer; 		//number of bytes to transfer to/from the external EEPROM page C:\Embedded\Joystick\jmain.c
                                           unsigned char z_EEPROM_bank;			//group of bytes (ramp o,1,2,3), each bank is 128 bytes C:\Embedded\Joystick\jmain.c
                                           unsigned char z_EEPROM_page;			//page within the bank where write starts         C:\Embedded\Joystick\jmain.c
                                           unsigned char z_EEPROM_offset;			// offset within the page (for single varaibles) C:\Embedded\Joystick\jmain.c
                                                                                                                            C:\Embedded\Joystick\jmain.c
                                           //nodes ids where pot values are sent                                            C:\Embedded\Joystick\jmain.c
                                           unsigned char z_number_of_nodes;		//2000,0 number of receiver nodes for potentiometer values C:\Embedded\Joystick\jmain.c
                                           unsigned char z_sw_node;				//2000,1 receiver of jIO_switch1_value               C:\Embedded\Joystick\jmain.c
                                           unsigned char z_node_1;					//2000,2 receiver of jIO_Potentiometer_1 value       C:\Embedded\Joystick\jmain.c
                                           unsigned char z_node_2;					//2000,3 receiver of jIO_Potentiometer_2 value       C:\Embedded\Joystick\jmain.c
                                           unsigned char z_node_3;					//2000,4 receiver of jIO_Potentiometer_3 value       C:\Embedded\Joystick\jmain.c
                                           unsigned char z_node_4;					//2000,5 receiver of jIO_Potentiometer_4 value       C:\Embedded\Joystick\jmain.c
                                           unsigned char z_master;					//master or slave indication                         C:\Embedded\Joystick\jmain.c
                                           unsigned char z_master_initializing;	//initializing process                      C:\Embedded\Joystick\jmain.c
                                           unsigned char z_slave_count;                                                     C:\Embedded\Joystick\jmain.c
                                           unsigned char next_PDO;                                                          C:\Embedded\Joystick\jmain.c
                                           //***************************************************//                          C:\Embedded\Joystick\jmain.c
                                           // Send emergency in case of bus errors if necessary                             C:\Embedded\Joystick\jmain.c
                                           //***************************************************//                          C:\Embedded\Joystick\jmain.c
                                           void CheckBusError(void)                                                         C:\Embedded\Joystick\jmain.c
                                           {                                                                                C:\Embedded\Joystick\jmain.c
                                            // ---- Transmission error                                                      C:\Embedded\Joystick\jmain.c
000ffa   0ef8     MOVLW     0xf8            	if ((COMSTAT & 0xF8) > 0) // Severe errors on the bus must be reported.        C:\Embedded\Joystick\jmain.c
000ffc   1474     ANDWF     0x74,0x0,0x0                                                                                    
000ffe   0800     SUBLW     0x0                                                                                             
001000   e20f     BC        0x1020                                                                                          
                                             	{                                                                             C:\Embedded\Joystick\jmain.c
001002   0101     MOVLB     0x1            		uCO_DevErrReg.COMMUNICATIONS=TRUE;                                             C:\Embedded\Joystick\jmain.c
001004   8985     BSF       0x85,0x4,0x1                                                                                    
001006   0101     MOVLB     0x1                	if (!bus_passive)                                                           C:\Embedded\Joystick\jmain.c
001008   51fd     MOVF      0xfd,0x0,0x1                                                                                    
00100a   e109     BNZ       0x101e                                                                                          
                                               	{                                                                           C:\Embedded\Joystick\jmain.c
00100c   0101     MOVLB     0x1            			ERROR_CODE.err_high = 0x81;                                                   C:\Embedded\Joystick\jmain.c
00100e   0e81     MOVLW     0x81                                                                                            
001010   6f9f     MOVWF     0x9f,0x1                                                                                        
001012   0e20     MOVLW     0x20           			ERROR_CODE.err_low = 0x20;                                                    C:\Embedded\Joystick\jmain.c
001014   6fa0     MOVWF     0xa0,0x1                                                                                        
001016   d9b2     RCALL     0x137c         			SendEmergency();		//generic error                                             C:\Embedded\Joystick\jmain.c
001018   0101     MOVLB     0x1                    	bus_passive = TRUE;                                                     C:\Embedded\Joystick\jmain.c
00101a   0e01     MOVLW     0x1                                                                                             
00101c   6ffd     MOVWF     0xfd,0x1                                                                                        
                                               	}                                                                           C:\Embedded\Joystick\jmain.c
                                             	}                                                                             C:\Embedded\Joystick\jmain.c
00101e   d004     BRA       0x1028         	else                                                                            C:\Embedded\Joystick\jmain.c
                                           	{                                                                               C:\Embedded\Joystick\jmain.c
001020   0101     MOVLB     0x1            		bus_passive = FALSE;                                                           C:\Embedded\Joystick\jmain.c
001022   6bfd     CLRF      0xfd,0x1                                                                                        
001024   0101     MOVLB     0x1            		uCO_DevErrReg.COMMUNICATIONS=FALSE;                                            C:\Embedded\Joystick\jmain.c
001026   9985     BCF       0x85,0x4,0x1                                                                                    
                                           	}                                                                               C:\Embedded\Joystick\jmain.c
                                                                                                                            C:\Embedded\Joystick\jmain.c
001028   0012     RETURN    0x0            }                                                                                C:\Embedded\Joystick\jmain.c
                                                                                                                            C:\Embedded\Joystick\jmain.c
                                           //***************************************************//                          C:\Embedded\Joystick\jmain.c
                                           // This node is master, send NMT messages to all the                             C:\Embedded\Joystick\jmain.c
                                           // slaves in the list                                                            C:\Embedded\Joystick\jmain.c
                                           //***************************************************//                          C:\Embedded\Joystick\jmain.c
                                           void initialize_slaves(void)                                                     C:\Embedded\Joystick\jmain.c
                                           {                                                                                C:\Embedded\Joystick\jmain.c
00102a   0101     MOVLB     0x1             if (z_slave_count != 0)                                                         C:\Embedded\Joystick\jmain.c
00102c   51b0     MOVF      0xb0,0x0,0x1                                                                                    
00102e   e027     BZ        0x107e                                                                                          
                                            {                                                                               C:\Embedded\Joystick\jmain.c
001030   05b0     DECF      0xb0,0x0,0x1   	if (z_slave_count == 1)                                                         C:\Embedded\Joystick\jmain.c
001032   e103     BNZ       0x103a                                                                                          
001034   c1a9     MOVFF     0x1a9,0x12a    	 	TXB_B [CAN_OPEN_IdNet].TXBD1 = z_sw_node;                                     C:\Embedded\Joystick\jmain.c
001036   f12a                                                                                                               
001038   d017     BRA       0x1068         	else if (z_slave_count == 2)                                                    C:\Embedded\Joystick\jmain.c
00103a   0e02     MOVLW     0x2                                                                                             
00103c   5db0     SUBWF     0xb0,0x0,0x1                                                                                    
00103e   e103     BNZ       0x1046                                                                                          
001040   c1aa     MOVFF     0x1aa,0x12a    	 	TXB_B [CAN_OPEN_IdNet].TXBD1 = z_node_1;                                      C:\Embedded\Joystick\jmain.c
001042   f12a                                                                                                               
001044   d011     BRA       0x1068         	else if (z_slave_count == 3)                                                    C:\Embedded\Joystick\jmain.c
001046   0e03     MOVLW     0x3                                                                                             
001048   5db0     SUBWF     0xb0,0x0,0x1                                                                                    
00104a   e103     BNZ       0x1052                                                                                          
00104c   c1ab     MOVFF     0x1ab,0x12a    	 	TXB_B [CAN_OPEN_IdNet].TXBD1 = z_node_2;                                      C:\Embedded\Joystick\jmain.c
00104e   f12a                                                                                                               
001050   d00b     BRA       0x1068         	else if (z_slave_count == 4)                                                    C:\Embedded\Joystick\jmain.c
001052   0e04     MOVLW     0x4                                                                                             
001054   5db0     SUBWF     0xb0,0x0,0x1                                                                                    
001056   e103     BNZ       0x105e                                                                                          
001058   c1ac     MOVFF     0x1ac,0x12a    	 	TXB_B [CAN_OPEN_IdNet].TXBD1 = z_node_3;                                      C:\Embedded\Joystick\jmain.c
00105a   f12a                                                                                                               
00105c   d005     BRA       0x1068         	else if (z_slave_count == 5)                                                    C:\Embedded\Joystick\jmain.c
00105e   0e05     MOVLW     0x5                                                                                             
001060   5db0     SUBWF     0xb0,0x0,0x1                                                                                    
001062   e102     BNZ       0x1068                                                                                          
001064   c1ad     MOVFF     0x1ad,0x12a    	 	TXB_B [CAN_OPEN_IdNet].TXBD1 = z_node_4;                                      C:\Embedded\Joystick\jmain.c
001066   f12a                                                                                                               
                                                                                                                            C:\Embedded\Joystick\jmain.c
001068   0e02     MOVLW     0x2             	TXB_B [CAN_OPEN_IdNet].TXBDLC  = 2;                                            C:\Embedded\Joystick\jmain.c
00106a   6f2c     MOVWF     0x2c,0x1                                                                                        
00106c   6b2e     CLRF      0x2e,0x1        	TXB_B [CAN_OPEN_IdNet].TXBSIDH = 0x00;		//NMT request                          C:\Embedded\Joystick\jmain.c
00106e   6b2d     CLRF      0x2d,0x1        	TXB_B [CAN_OPEN_IdNet].TXBSIDL = 0x00;                                         C:\Embedded\Joystick\jmain.c
001070   6b2d     CLRF      0x2d,0x1        	TXB_B [CAN_OPEN_IdNet].TXBSIDL = 0x00;                                         C:\Embedded\Joystick\jmain.c
001072   0e01     MOVLW     0x1             	TXB_B [CAN_OPEN_IdNet].TXBD0 = CAN_REQUEST_START;                              C:\Embedded\Joystick\jmain.c
001074   6f2b     MOVWF     0x2b,0x1                                                                                        
001076   8f2f     BSF       0x2f,0x7,0x1    	TXB_B [CAN_OPEN_IdNet].ST_B.OUT = 1;                                           C:\Embedded\Joystick\jmain.c
                                                                                                                            C:\Embedded\Joystick\jmain.c
001078   07b0     DECF      0xb0,0x1,0x1   	if (--z_slave_count == 0)                                                       C:\Embedded\Joystick\jmain.c
00107a   e101     BNZ       0x107e                                                                                          
00107c   6baf     CLRF      0xaf,0x1       		z_master_initializing = FALSE;                                                 C:\Embedded\Joystick\jmain.c
                                                                                                                            C:\Embedded\Joystick\jmain.c
                                            }                                                                               C:\Embedded\Joystick\jmain.c
00107e   0012     RETURN    0x0            }                                                                                C:\Embedded\Joystick\jmain.c
                                           //***************************************************//                          C:\Embedded\Joystick\jmain.c
                                           //Scrittura nel bus CAN                              //                          C:\Embedded\Joystick\jmain.c
                                           //***************************************************//                          C:\Embedded\Joystick\jmain.c
001080   cfd9     MOVFF     0xfd9,0xfe6    void CanOut(void)                                                                C:\Embedded\Joystick\jmain.c
001082   ffe6                                                                                                               
001084   cfe1     MOVFF     0xfe1,0xfd9                                                                                     
001086   ffd9                                                                                                               
001088   52e6     MOVF      0xe6,0x1,0x0                                                                                    
                                           {                                                                                C:\Embedded\Joystick\jmain.c
                                            char i;                                                                         C:\Embedded\Joystick\jmain.c
                                                                                                                            C:\Embedded\Joystick\jmain.c
                                                                                                                            C:\Embedded\Joystick\jmain.c
00108a   010f     MOVLB     0xf             if (TXB0CONbits.TXREQ) return;                                                  C:\Embedded\Joystick\jmain.c
00108c   b740     BTFSC     0x40,0x3,0x1                                                                                    
00108e   d16d     BRA       0x136a                                                                                          
001090   b6a4     BTFSC     0xa4,0x3,0x0    if (PIR3bits.TXB1IF) PIR3bits.TXB1IF = 0;                                       C:\Embedded\Joystick\jmain.c
001092   96a4     BCF       0xa4,0x3,0x0                                                                                    
                                                                                                                            C:\Embedded\Joystick\jmain.c
                                            // Look for a message to send                                                   C:\Embedded\Joystick\jmain.c
001094   c1a1     MOVFF     0x1a1,0xfdf     for (i = ultimo_out ; i < MAX_CAN_OUT ; i++)                                    C:\Embedded\Joystick\jmain.c
001096   ffdf                                                                                                               
001098   cfdf     MOVFF     0xfdf,0x0                                                                                       
00109a   f000                                                                                                               
00109c   0e05     MOVLW     0x5                                                                                             
00109e   6ee7     MOVWF     0xe7,0x0                                                                                        
0010a0   1800     XORWF     0x0,0x0,0x0                                                                                     
0010a2   aee8     BTFSS     0xe8,0x7,0x0                                                                                    
0010a4   d002     BRA       0x10aa                                                                                          
0010a6   34e7     RLCF      0xe7,0x0,0x0                                                                                    
0010a8   d002     BRA       0x10ae                                                                                          
0010aa   50e7     MOVF      0xe7,0x0,0x0                                                                                    
0010ac   5c00     SUBWF     0x0,0x0,0x0                                                                                     
0010ae   e301     BNC       0x10b2                                                                                          
0010b0   d14e     BRA       0x134e                                                                                          
00134a   2adf     INCF      0xdf,0x1,0x0                                                                                    
00134c   d6a5     BRA       0x1098                                                                                          
                                             {                                                                              C:\Embedded\Joystick\jmain.c
0010b2   cfdf     MOVFF     0xfdf,0xfe9       if (TXB_B [i].ST_B.OUT)                                                       C:\Embedded\Joystick\jmain.c
0010b4   ffe9                                                                                                               
0010b6   6aea     CLRF      0xea,0x0                                                                                        
0010b8   bee9     BTFSC     0xe9,0x7,0x0                                                                                    
0010ba   68ea     SETF      0xea,0x0                                                                                        
0010bc   0e0c     MOVLW     0xc                                                                                             
0010be   02ea     MULWF     0xea,0x0                                                                                        
0010c0   cff3     MOVFF     0xff3,0xfea                                                                                     
0010c2   ffea                                                                                                               
0010c4   0e0c     MOVLW     0xc                                                                                             
0010c6   02e9     MULWF     0xe9,0x0                                                                                        
0010c8   cff3     MOVFF     0xff3,0xfe9                                                                                     
0010ca   ffe9                                                                                                               
0010cc   50f4     MOVF      0xf4,0x0,0x0                                                                                    
0010ce   26ea     ADDWF     0xea,0x1,0x0                                                                                    
0010d0   0e00     MOVLW     0x0                                                                                             
0010d2   26e9     ADDWF     0xe9,0x1,0x0                                                                                    
0010d4   0e01     MOVLW     0x1                                                                                             
0010d6   22ea     ADDWFC    0xea,0x1,0x0                                                                                    
0010d8   0e0b     MOVLW     0xb                                                                                             
0010da   26e9     ADDWF     0xe9,0x1,0x0                                                                                    
0010dc   0e00     MOVLW     0x0                                                                                             
0010de   22ea     ADDWFC    0xea,0x1,0x0                                                                                    
0010e0   50ef     MOVF      0xef,0x0,0x0                                                                                    
0010e2   0b80     ANDLW     0x80                                                                                            
0010e4   e101     BNZ       0x10e8                                                                                          
0010e6   d131     BRA       0x134a                                                                                          
                                               {                                                                            C:\Embedded\Joystick\jmain.c
0010e8   cfdf     MOVFF     0xfdf,0xfe9         TXB_B [i].ST_B.OUT  = 0;                                                    C:\Embedded\Joystick\jmain.c
0010ea   ffe9                                                                                                               
0010ec   6aea     CLRF      0xea,0x0                                                                                        
0010ee   bee9     BTFSC     0xe9,0x7,0x0                                                                                    
0010f0   68ea     SETF      0xea,0x0                                                                                        
0010f2   0e0c     MOVLW     0xc                                                                                             
0010f4   02ea     MULWF     0xea,0x0                                                                                        
0010f6   cff3     MOVFF     0xff3,0xfea                                                                                     
0010f8   ffea                                                                                                               
0010fa   0e0c     MOVLW     0xc                                                                                             
0010fc   02e9     MULWF     0xe9,0x0                                                                                        
0010fe   cff3     MOVFF     0xff3,0xfe9                                                                                     
001100   ffe9                                                                                                               
001102   50f4     MOVF      0xf4,0x0,0x0                                                                                    
001104   26ea     ADDWF     0xea,0x1,0x0                                                                                    
001106   0e00     MOVLW     0x0                                                                                             
001108   26e9     ADDWF     0xe9,0x1,0x0                                                                                    
00110a   0e01     MOVLW     0x1                                                                                             
00110c   22ea     ADDWFC    0xea,0x1,0x0                                                                                    
00110e   0e0b     MOVLW     0xb                                                                                             
001110   26e9     ADDWF     0xe9,0x1,0x0                                                                                    
001112   0e00     MOVLW     0x0                                                                                             
001114   22ea     ADDWFC    0xea,0x1,0x0                                                                                    
001116   9eef     BCF       0xef,0x7,0x0                                                                                    
001118   cfdf     MOVFF     0xfdf,0xfe9         TXB0SIDL = TXB_B [i].TXBSIDL;                                               C:\Embedded\Joystick\jmain.c
00111a   ffe9                                                                                                               
00111c   6aea     CLRF      0xea,0x0                                                                                        
00111e   bee9     BTFSC     0xe9,0x7,0x0                                                                                    
001120   68ea     SETF      0xea,0x0                                                                                        
001122   0e0c     MOVLW     0xc                                                                                             
001124   02ea     MULWF     0xea,0x0                                                                                        
001126   cff3     MOVFF     0xff3,0xfea                                                                                     
001128   ffea                                                                                                               
00112a   0e0c     MOVLW     0xc                                                                                             
00112c   02e9     MULWF     0xe9,0x0                                                                                        
00112e   cff3     MOVFF     0xff3,0xfe9                                                                                     
001130   ffe9                                                                                                               
001132   50f4     MOVF      0xf4,0x0,0x0                                                                                    
001134   26ea     ADDWF     0xea,0x1,0x0                                                                                    
001136   0e00     MOVLW     0x0                                                                                             
001138   26e9     ADDWF     0xe9,0x1,0x0                                                                                    
00113a   0e01     MOVLW     0x1                                                                                             
00113c   22ea     ADDWFC    0xea,0x1,0x0                                                                                    
00113e   0e09     MOVLW     0x9                                                                                             
001140   26e9     ADDWF     0xe9,0x1,0x0                                                                                    
001142   0e00     MOVLW     0x0                                                                                             
001144   22ea     ADDWFC    0xea,0x1,0x0                                                                                    
001146   cfef     MOVFF     0xfef,0xf42                                                                                     
001148   ff42                                                                                                               
00114a   cfdf     MOVFF     0xfdf,0xfe9         TXB0SIDH = TXB_B [i].TXBSIDH;                                               C:\Embedded\Joystick\jmain.c
00114c   ffe9                                                                                                               
00114e   6aea     CLRF      0xea,0x0                                                                                        
001150   bee9     BTFSC     0xe9,0x7,0x0                                                                                    
001152   68ea     SETF      0xea,0x0                                                                                        
001154   0e0c     MOVLW     0xc                                                                                             
001156   02ea     MULWF     0xea,0x0                                                                                        
001158   cff3     MOVFF     0xff3,0xfea                                                                                     
00115a   ffea                                                                                                               
00115c   0e0c     MOVLW     0xc                                                                                             
00115e   02e9     MULWF     0xe9,0x0                                                                                        
001160   cff3     MOVFF     0xff3,0xfe9                                                                                     
001162   ffe9                                                                                                               
001164   50f4     MOVF      0xf4,0x0,0x0                                                                                    
001166   26ea     ADDWF     0xea,0x1,0x0                                                                                    
001168   0e00     MOVLW     0x0                                                                                             
00116a   26e9     ADDWF     0xe9,0x1,0x0                                                                                    
00116c   0e01     MOVLW     0x1                                                                                             
00116e   22ea     ADDWFC    0xea,0x1,0x0                                                                                    
001170   0e0a     MOVLW     0xa                                                                                             
001172   26e9     ADDWF     0xe9,0x1,0x0                                                                                    
001174   0e00     MOVLW     0x0                                                                                             
001176   22ea     ADDWFC    0xea,0x1,0x0                                                                                    
001178   cfef     MOVFF     0xfef,0xf41                                                                                     
00117a   ff41                                                                                                               
00117c   cfdf     MOVFF     0xfdf,0xfe9         TXB0DLC = TXB_B [i].TXBDLC;                                                 C:\Embedded\Joystick\jmain.c
00117e   ffe9                                                                                                               
001180   6aea     CLRF      0xea,0x0                                                                                        
001182   bee9     BTFSC     0xe9,0x7,0x0                                                                                    
001184   68ea     SETF      0xea,0x0                                                                                        
001186   0e0c     MOVLW     0xc                                                                                             
001188   02ea     MULWF     0xea,0x0                                                                                        
00118a   cff3     MOVFF     0xff3,0xfea                                                                                     
00118c   ffea                                                                                                               
00118e   0e0c     MOVLW     0xc                                                                                             
001190   02e9     MULWF     0xe9,0x0                                                                                        
001192   cff3     MOVFF     0xff3,0xfe9                                                                                     
001194   ffe9                                                                                                               
001196   50f4     MOVF      0xf4,0x0,0x0                                                                                    
001198   26ea     ADDWF     0xea,0x1,0x0                                                                                    
00119a   0e00     MOVLW     0x0                                                                                             
00119c   26e9     ADDWF     0xe9,0x1,0x0                                                                                    
00119e   0e01     MOVLW     0x1                                                                                             
0011a0   22ea     ADDWFC    0xea,0x1,0x0                                                                                    
0011a2   0e08     MOVLW     0x8                                                                                             
0011a4   26e9     ADDWF     0xe9,0x1,0x0                                                                                    
0011a6   0e00     MOVLW     0x0                                                                                             
0011a8   22ea     ADDWFC    0xea,0x1,0x0                                                                                    
0011aa   cfef     MOVFF     0xfef,0xf45                                                                                     
0011ac   ff45                                                                                                               
0011ae   cfdf     MOVFF     0xfdf,0xfe9         TXB0D0 = TXB_B [i].TXBD0;                                                   C:\Embedded\Joystick\jmain.c
0011b0   ffe9                                                                                                               
0011b2   6aea     CLRF      0xea,0x0                                                                                        
0011b4   bee9     BTFSC     0xe9,0x7,0x0                                                                                    
0011b6   68ea     SETF      0xea,0x0                                                                                        
0011b8   0e0c     MOVLW     0xc                                                                                             
0011ba   02ea     MULWF     0xea,0x0                                                                                        
0011bc   cff3     MOVFF     0xff3,0xfea                                                                                     
0011be   ffea                                                                                                               
0011c0   0e0c     MOVLW     0xc                                                                                             
0011c2   02e9     MULWF     0xe9,0x0                                                                                        
0011c4   cff3     MOVFF     0xff3,0xfe9                                                                                     
0011c6   ffe9                                                                                                               
0011c8   50f4     MOVF      0xf4,0x0,0x0                                                                                    
0011ca   26ea     ADDWF     0xea,0x1,0x0                                                                                    
0011cc   0e00     MOVLW     0x0                                                                                             
0011ce   26e9     ADDWF     0xe9,0x1,0x0                                                                                    
0011d0   0e01     MOVLW     0x1                                                                                             
0011d2   22ea     ADDWFC    0xea,0x1,0x0                                                                                    
0011d4   0e07     MOVLW     0x7                                                                                             
0011d6   26e9     ADDWF     0xe9,0x1,0x0                                                                                    
0011d8   0e00     MOVLW     0x0                                                                                             
0011da   22ea     ADDWFC    0xea,0x1,0x0                                                                                    
0011dc   cfef     MOVFF     0xfef,0xf46                                                                                     
0011de   ff46                                                                                                               
0011e0   cfdf     MOVFF     0xfdf,0xfe9         TXB0D1 = TXB_B [i].TXBD1;                                                   C:\Embedded\Joystick\jmain.c
0011e2   ffe9                                                                                                               
0011e4   6aea     CLRF      0xea,0x0                                                                                        
0011e6   bee9     BTFSC     0xe9,0x7,0x0                                                                                    
0011e8   68ea     SETF      0xea,0x0                                                                                        
0011ea   0e0c     MOVLW     0xc                                                                                             
0011ec   02ea     MULWF     0xea,0x0                                                                                        
0011ee   cff3     MOVFF     0xff3,0xfea                                                                                     
0011f0   ffea                                                                                                               
0011f2   0e0c     MOVLW     0xc                                                                                             
0011f4   02e9     MULWF     0xe9,0x0                                                                                        
0011f6   cff3     MOVFF     0xff3,0xfe9                                                                                     
0011f8   ffe9                                                                                                               
0011fa   50f4     MOVF      0xf4,0x0,0x0                                                                                    
0011fc   26ea     ADDWF     0xea,0x1,0x0                                                                                    
0011fe   0e00     MOVLW     0x0                                                                                             
001200   26e9     ADDWF     0xe9,0x1,0x0                                                                                    
001202   0e01     MOVLW     0x1                                                                                             
001204   22ea     ADDWFC    0xea,0x1,0x0                                                                                    
001206   0e06     MOVLW     0x6                                                                                             
001208   26e9     ADDWF     0xe9,0x1,0x0                                                                                    
00120a   0e00     MOVLW     0x0                                                                                             
00120c   22ea     ADDWFC    0xea,0x1,0x0                                                                                    
00120e   cfef     MOVFF     0xfef,0xf47                                                                                     
001210   ff47                                                                                                               
001212   cfdf     MOVFF     0xfdf,0xfe9         TXB0D2 = TXB_B [i].TXBD2;                                                   C:\Embedded\Joystick\jmain.c
001214   ffe9                                                                                                               
001216   6aea     CLRF      0xea,0x0                                                                                        
001218   bee9     BTFSC     0xe9,0x7,0x0                                                                                    
00121a   68ea     SETF      0xea,0x0                                                                                        
00121c   0e0c     MOVLW     0xc                                                                                             
00121e   02ea     MULWF     0xea,0x0                                                                                        
001220   cff3     MOVFF     0xff3,0xfea                                                                                     
001222   ffea                                                                                                               
001224   0e0c     MOVLW     0xc                                                                                             
001226   02e9     MULWF     0xe9,0x0                                                                                        
001228   cff3     MOVFF     0xff3,0xfe9                                                                                     
00122a   ffe9                                                                                                               
00122c   50f4     MOVF      0xf4,0x0,0x0                                                                                    
00122e   26ea     ADDWF     0xea,0x1,0x0                                                                                    
001230   0e00     MOVLW     0x0                                                                                             
001232   26e9     ADDWF     0xe9,0x1,0x0                                                                                    
001234   0e01     MOVLW     0x1                                                                                             
001236   22ea     ADDWFC    0xea,0x1,0x0                                                                                    
001238   0e05     MOVLW     0x5                                                                                             
00123a   26e9     ADDWF     0xe9,0x1,0x0                                                                                    
00123c   0e00     MOVLW     0x0                                                                                             
00123e   22ea     ADDWFC    0xea,0x1,0x0                                                                                    
001240   cfef     MOVFF     0xfef,0xf48                                                                                     
001242   ff48                                                                                                               
001244   cfdf     MOVFF     0xfdf,0xfe9         TXB0D3 = TXB_B [i].TXBD3;                                                   C:\Embedded\Joystick\jmain.c
001246   ffe9                                                                                                               
001248   6aea     CLRF      0xea,0x0                                                                                        
00124a   bee9     BTFSC     0xe9,0x7,0x0                                                                                    
00124c   68ea     SETF      0xea,0x0                                                                                        
00124e   0e0c     MOVLW     0xc                                                                                             
001250   02ea     MULWF     0xea,0x0                                                                                        
001252   cff3     MOVFF     0xff3,0xfea                                                                                     
001254   ffea                                                                                                               
001256   0e0c     MOVLW     0xc                                                                                             
001258   02e9     MULWF     0xe9,0x0                                                                                        
00125a   cff3     MOVFF     0xff3,0xfe9                                                                                     
00125c   ffe9                                                                                                               
00125e   50f4     MOVF      0xf4,0x0,0x0                                                                                    
001260   26ea     ADDWF     0xea,0x1,0x0                                                                                    
001262   0e00     MOVLW     0x0                                                                                             
001264   26e9     ADDWF     0xe9,0x1,0x0                                                                                    
001266   0e01     MOVLW     0x1                                                                                             
001268   22ea     ADDWFC    0xea,0x1,0x0                                                                                    
00126a   0e04     MOVLW     0x4                                                                                             
00126c   26e9     ADDWF     0xe9,0x1,0x0                                                                                    
00126e   0e00     MOVLW     0x0                                                                                             
001270   22ea     ADDWFC    0xea,0x1,0x0                                                                                    
001272   cfef     MOVFF     0xfef,0xf49                                                                                     
001274   ff49                                                                                                               
001276   cfdf     MOVFF     0xfdf,0xfe9         TXB0D4 = TXB_B [i].TXBD4;                                                   C:\Embedded\Joystick\jmain.c
001278   ffe9                                                                                                               
00127a   6aea     CLRF      0xea,0x0                                                                                        
00127c   bee9     BTFSC     0xe9,0x7,0x0                                                                                    
00127e   68ea     SETF      0xea,0x0                                                                                        
001280   0e0c     MOVLW     0xc                                                                                             
001282   02ea     MULWF     0xea,0x0                                                                                        
001284   cff3     MOVFF     0xff3,0xfea                                                                                     
001286   ffea                                                                                                               
001288   0e0c     MOVLW     0xc                                                                                             
00128a   02e9     MULWF     0xe9,0x0                                                                                        
00128c   cff3     MOVFF     0xff3,0xfe9                                                                                     
00128e   ffe9                                                                                                               
001290   50f4     MOVF      0xf4,0x0,0x0                                                                                    
001292   26ea     ADDWF     0xea,0x1,0x0                                                                                    
001294   0e00     MOVLW     0x0                                                                                             
001296   26e9     ADDWF     0xe9,0x1,0x0                                                                                    
001298   0e01     MOVLW     0x1                                                                                             
00129a   22ea     ADDWFC    0xea,0x1,0x0                                                                                    
00129c   0e03     MOVLW     0x3                                                                                             
00129e   26e9     ADDWF     0xe9,0x1,0x0                                                                                    
0012a0   0e00     MOVLW     0x0                                                                                             
0012a2   22ea     ADDWFC    0xea,0x1,0x0                                                                                    
0012a4   cfef     MOVFF     0xfef,0xf4a                                                                                     
0012a6   ff4a                                                                                                               
0012a8   cfdf     MOVFF     0xfdf,0xfe9         TXB0D5 = TXB_B [i].TXBD5;                                                   C:\Embedded\Joystick\jmain.c
0012aa   ffe9                                                                                                               
0012ac   6aea     CLRF      0xea,0x0                                                                                        
0012ae   bee9     BTFSC     0xe9,0x7,0x0                                                                                    
0012b0   68ea     SETF      0xea,0x0                                                                                        
0012b2   0e0c     MOVLW     0xc                                                                                             
0012b4   02ea     MULWF     0xea,0x0                                                                                        
0012b6   cff3     MOVFF     0xff3,0xfea                                                                                     
0012b8   ffea                                                                                                               
0012ba   0e0c     MOVLW     0xc                                                                                             
0012bc   02e9     MULWF     0xe9,0x0                                                                                        
0012be   cff3     MOVFF     0xff3,0xfe9                                                                                     
0012c0   ffe9                                                                                                               
0012c2   50f4     MOVF      0xf4,0x0,0x0                                                                                    
0012c4   26ea     ADDWF     0xea,0x1,0x0                                                                                    
0012c6   0e00     MOVLW     0x0                                                                                             
0012c8   26e9     ADDWF     0xe9,0x1,0x0                                                                                    
0012ca   0e01     MOVLW     0x1                                                                                             
0012cc   22ea     ADDWFC    0xea,0x1,0x0                                                                                    
0012ce   0e02     MOVLW     0x2                                                                                             
0012d0   26e9     ADDWF     0xe9,0x1,0x0                                                                                    
0012d2   0e00     MOVLW     0x0                                                                                             
0012d4   22ea     ADDWFC    0xea,0x1,0x0                                                                                    
0012d6   cfef     MOVFF     0xfef,0xf4b                                                                                     
0012d8   ff4b                                                                                                               
0012da   cfdf     MOVFF     0xfdf,0xfe9         TXB0D6 = TXB_B [i].TXBD6;                                                   C:\Embedded\Joystick\jmain.c
0012dc   ffe9                                                                                                               
0012de   6aea     CLRF      0xea,0x0                                                                                        
0012e0   bee9     BTFSC     0xe9,0x7,0x0                                                                                    
0012e2   68ea     SETF      0xea,0x0                                                                                        
0012e4   0e0c     MOVLW     0xc                                                                                             
0012e6   02ea     MULWF     0xea,0x0                                                                                        
0012e8   cff3     MOVFF     0xff3,0xfea                                                                                     
0012ea   ffea                                                                                                               
0012ec   0e0c     MOVLW     0xc                                                                                             
0012ee   02e9     MULWF     0xe9,0x0                                                                                        
0012f0   cff3     MOVFF     0xff3,0xfe9                                                                                     
0012f2   ffe9                                                                                                               
0012f4   50f4     MOVF      0xf4,0x0,0x0                                                                                    
0012f6   26ea     ADDWF     0xea,0x1,0x0                                                                                    
0012f8   0e00     MOVLW     0x0                                                                                             
0012fa   26e9     ADDWF     0xe9,0x1,0x0                                                                                    
0012fc   0e01     MOVLW     0x1                                                                                             
0012fe   22ea     ADDWFC    0xea,0x1,0x0                                                                                    
001300   52ee     MOVF      0xee,0x1,0x0                                                                                    
001302   cfef     MOVFF     0xfef,0xf4c                                                                                     
001304   ff4c                                                                                                               
001306   cfdf     MOVFF     0xfdf,0xfe9         TXB0D7 = TXB_B [i].TXBD7;                                                   C:\Embedded\Joystick\jmain.c
001308   ffe9                                                                                                               
00130a   6aea     CLRF      0xea,0x0                                                                                        
00130c   bee9     BTFSC     0xe9,0x7,0x0                                                                                    
00130e   68ea     SETF      0xea,0x0                                                                                        
001310   0e0c     MOVLW     0xc                                                                                             
001312   02ea     MULWF     0xea,0x0                                                                                        
001314   cff3     MOVFF     0xff3,0xfea                                                                                     
001316   ffea                                                                                                               
001318   0e0c     MOVLW     0xc                                                                                             
00131a   02e9     MULWF     0xe9,0x0                                                                                        
00131c   cff3     MOVFF     0xff3,0xfe9                                                                                     
00131e   ffe9                                                                                                               
001320   50f4     MOVF      0xf4,0x0,0x0                                                                                    
001322   26ea     ADDWF     0xea,0x1,0x0                                                                                    
001324   0e00     MOVLW     0x0                                                                                             
001326   26e9     ADDWF     0xe9,0x1,0x0                                                                                    
001328   0e01     MOVLW     0x1                                                                                             
00132a   22ea     ADDWFC    0xea,0x1,0x0                                                                                    
00132c   cfef     MOVFF     0xfef,0xf4d                                                                                     
00132e   ff4d                                                                                                               
001330   010f     MOVLB     0xf                 TXB0CONbits.TXREQ = 1;                                                      C:\Embedded\Joystick\jmain.c
001332   8740     BSF       0x40,0x3,0x1                                                                                    
                                                                                                                            C:\Embedded\Joystick\jmain.c
001334   0004     CLRWDT                   	 _asm clrwdt _endasm                                                            C:\Embedded\Joystick\jmain.c
001336   010f     MOVLB     0xf            	 while (TXB0CONbits.TXREQ) ;                                                    C:\Embedded\Joystick\jmain.c
001338   b740     BTFSC     0x40,0x3,0x1                                                                                    
00133a   d7fd     BRA       0x1336                                                                                          
                                                                                                                            C:\Embedded\Joystick\jmain.c
00133c   b4a4     BTFSC     0xa4,0x2,0x0   	 if (PIR3bits.TXB0IF) PIR3bits.TXB0IF = 0;                                      C:\Embedded\Joystick\jmain.c
00133e   94a4     BCF       0xa4,0x2,0x0                                                                                    
001340   50df     MOVF      0xdf,0x0,0x0   	 ultimo_out = i++;                                                              C:\Embedded\Joystick\jmain.c
001342   2adf     INCF      0xdf,0x1,0x0                                                                                    
001344   0101     MOVLB     0x1                                                                                             
001346   6fa1     MOVWF     0xa1,0x1                                                                                        
001348   d002     BRA       0x134e         	 break;                                                                         C:\Embedded\Joystick\jmain.c
                                                }                                                                           C:\Embedded\Joystick\jmain.c
                                             }                                                                              C:\Embedded\Joystick\jmain.c
00134e   cfdf     MOVFF     0xfdf,0x0       if (i >= MAX_CAN_OUT)                                                           C:\Embedded\Joystick\jmain.c
001350   f000                                                                                                               
001352   0e05     MOVLW     0x5                                                                                             
001354   6ee7     MOVWF     0xe7,0x0                                                                                        
001356   1800     XORWF     0x0,0x0,0x0                                                                                     
001358   aee8     BTFSS     0xe8,0x7,0x0                                                                                    
00135a   d002     BRA       0x1360                                                                                          
00135c   34e7     RLCF      0xe7,0x0,0x0                                                                                    
00135e   d002     BRA       0x1364                                                                                          
001360   50e7     MOVF      0xe7,0x0,0x0                                                                                    
001362   5c00     SUBWF     0x0,0x0,0x0                                                                                     
001364   e302     BNC       0x136a                                                                                          
001366   0101     MOVLB     0x1               ultimo_out = 0;                                                               C:\Embedded\Joystick\jmain.c
001368   6ba1     CLRF      0xa1,0x1                                                                                        
00136a   52e5     MOVF      0xe5,0x1,0x0   }                                                                                C:\Embedded\Joystick\jmain.c
00136c   52e5     MOVF      0xe5,0x1,0x0                                                                                    
00136e   cfe7     MOVFF     0xfe7,0xfd9                                                                                     
001370   ffd9                                                                                                               
001372   0012     RETURN    0x0                                                                                             
                                                                                                                            C:\Embedded\Joystick\jmain.c
                                           //***************************************************//                          C:\Embedded\Joystick\jmain.c
                                           //Prepare BOOT message                              //                           C:\Embedded\Joystick\jmain.c
                                           //***************************************************//                          C:\Embedded\Joystick\jmain.c
                                           void SendBoot (void)                                                             C:\Embedded\Joystick\jmain.c
                                             {                                                                              C:\Embedded\Joystick\jmain.c
001374   0101     MOVLB     0x1            	TXB_B [CAN_OPEN_IdErr].TXBD0 = 0;                                               C:\Embedded\Joystick\jmain.c
001376   6b1f     CLRF      0x1f,0x1                                                                                        
001378   8f23     BSF       0x23,0x7,0x1   	TXB_B [CAN_OPEN_IdErr].ST_B.OUT = 1;	                                           C:\Embedded\Joystick\jmain.c
00137a   0012     RETURN    0x0              }                                                                              C:\Embedded\Joystick\jmain.c
                                             //***************************************************//                        C:\Embedded\Joystick\jmain.c
                                           //Prepare Emergency message                              //                      C:\Embedded\Joystick\jmain.c
                                           //***************************************************//                          C:\Embedded\Joystick\jmain.c
                                           void SendEmergency (void)                                                        C:\Embedded\Joystick\jmain.c
                                             {                                                                              C:\Embedded\Joystick\jmain.c
00137c   c19f     MOVFF     0x19f,0x12b    	TXB_B [CAN_OPEN_IdEMCY].TXBD0 = ERROR_CODE.err_high; 	// (Table 21, p. 9-38)    C:\Embedded\Joystick\jmain.c
00137e   f12b                                                                                                               
001380   c1a0     MOVFF     0x1a0,0x12a    	TXB_B [CAN_OPEN_IdEMCY].TXBD1 = ERROR_CODE.err_low;                             C:\Embedded\Joystick\jmain.c
001382   f12a                                                                                                               
001384   c185     MOVFF     0x185,0x129    	TXB_B [CAN_OPEN_IdEMCY].TXBD2 = uCO_DevErrReg.ebyte;	// registry (DO 0x1001,0: Error Register (Table 47, p. 9-65) C:\Embedded\Joystick\jmain.c
001386   f129                                                                                                               
001388   0101     MOVLB     0x1            	TXB_B [CAN_OPEN_IdEMCY].TXBD3 = 0x00;                                           C:\Embedded\Joystick\jmain.c
00138a   6b28     CLRF      0x28,0x1                                                                                        
00138c   6b27     CLRF      0x27,0x1       	TXB_B [CAN_OPEN_IdEMCY].TXBD4 = 0x00;                                           C:\Embedded\Joystick\jmain.c
00138e   6b26     CLRF      0x26,0x1       	TXB_B [CAN_OPEN_IdEMCY].TXBD5 = 0x00;                                           C:\Embedded\Joystick\jmain.c
001390   8f2f     BSF       0x2f,0x7,0x1   	TXB_B [CAN_OPEN_IdEMCY].ST_B.OUT = 1;	                                          C:\Embedded\Joystick\jmain.c
001392   6b9f     CLRF      0x9f,0x1       	ERROR_CODE.err_high = 0;				//once reported clear.                              C:\Embedded\Joystick\jmain.c
001394   6ba0     CLRF      0xa0,0x1       	ERROR_CODE.err_low = 0;					// historic error DO (0x1003) not supported         C:\Embedded\Joystick\jmain.c
                                           											// uCO_DevErrReg is managed by the caller                             C:\Embedded\Joystick\jmain.c
001396   0012     RETURN    0x0              }                                                                              C:\Embedded\Joystick\jmain.c
                                                                                                                            C:\Embedded\Joystick\jmain.c
                                           //***************************************************//                          C:\Embedded\Joystick\jmain.c
                                           //Prepare HEARTBEAT message                          //                          C:\Embedded\Joystick\jmain.c
                                           //***************************************************//                          C:\Embedded\Joystick\jmain.c
                                           void SendHeartbeat (void)                                                        C:\Embedded\Joystick\jmain.c
                                             {                                                                              C:\Embedded\Joystick\jmain.c
001398   c1fb     MOVFF     0x1fb,0x11f    	TXB_B [CAN_OPEN_IdErr].TXBD0 = StatoUnita;                                      C:\Embedded\Joystick\jmain.c
00139a   f11f                                                                                                               
00139c   0101     MOVLB     0x1            	TXB_B [CAN_OPEN_IdErr].ST_B.OUT = 1;	                                           C:\Embedded\Joystick\jmain.c
00139e   8f23     BSF       0x23,0x7,0x1                                                                                    
0013a0   0012     RETURN    0x0              }                                                                              C:\Embedded\Joystick\jmain.c
                                                                                                                            C:\Embedded\Joystick\jmain.c
                                           //***************************************************//                          C:\Embedded\Joystick\jmain.c
                                           //Prepare INIT_SDO_INIT_RESPONSE                     //                          C:\Embedded\Joystick\jmain.c
                                           //***************************************************//                          C:\Embedded\Joystick\jmain.c
0013a2   cfd9     MOVFF     0xfd9,0xfe6    void Send_Init_Download_resp(int i, unsigned char s)                             C:\Embedded\Joystick\jmain.c
0013a4   ffe6                                                                                                               
0013a6   cfe1     MOVFF     0xfe1,0xfd9                                                                                     
0013a8   ffd9                                                                                                               
                                           {                                                                                C:\Embedded\Joystick\jmain.c
0013aa   0101     MOVLB     0x1             TXB_B [CAN_OPEN_IdSdoTx].COMMAND.INIT_DOWNLOAD_RESPONSE.scs = SCS_SDO_INIT_DOWNLOAD_RESP; C:\Embedded\Joystick\jmain.c
0013ac   8b13     BSF       0x13,0x5,0x1                                                                                    
0013ae   8d13     BSF       0x13,0x6,0x1                                                                                    
0013b0   9f13     BCF       0x13,0x7,0x1                                                                                    
0013b2   9113     BCF       0x13,0x0,0x1    TXB_B [CAN_OPEN_IdSdoTx].COMMAND.INIT_DOWNLOAD_RESPONSE.x = 0;                  C:\Embedded\Joystick\jmain.c
0013b4   9313     BCF       0x13,0x1,0x1                                                                                    
0013b6   9513     BCF       0x13,0x2,0x1                                                                                    
0013b8   9713     BCF       0x13,0x3,0x1                                                                                    
0013ba   9913     BCF       0x13,0x4,0x1                                                                                    
0013bc   0efd     MOVLW     0xfd            TXB_B [CAN_OPEN_IdSdoTx].INDEX = i;                                             C:\Embedded\Joystick\jmain.c
0013be   cfdb     MOVFF     0xfdb,0x111                                                                                     
0013c0   f111                                                                                                               
0013c2   0efe     MOVLW     0xfe                                                                                            
0013c4   cfdb     MOVFF     0xfdb,0x112                                                                                     
0013c6   f112                                                                                                               
0013c8   0efc     MOVLW     0xfc            TXB_B [CAN_OPEN_IdSdoTx].SUB_INDEX = s;                                         C:\Embedded\Joystick\jmain.c
0013ca   cfdb     MOVFF     0xfdb,0x110                                                                                     
0013cc   f110                                                                                                               
0013ce   8f17     BSF       0x17,0x7,0x1    TXB_B [CAN_OPEN_IdSdoTx].ST_B.OUT = 1;                                          C:\Embedded\Joystick\jmain.c
0013d0   52e5     MOVF      0xe5,0x1,0x0   }                                                                                C:\Embedded\Joystick\jmain.c
0013d2   cfe7     MOVFF     0xfe7,0xfd9                                                                                     
0013d4   ffd9                                                                                                               
0013d6   0012     RETURN    0x0                                                                                             
                                                                                                                            C:\Embedded\Joystick\jmain.c
                                           //***************************************************//                          C:\Embedded\Joystick\jmain.c
                                           //Prepare DOWNLOAD_RESPONSE 	                    //                              C:\Embedded\Joystick\jmain.c
                                           //***************************************************//                          C:\Embedded\Joystick\jmain.c
0013d8   cfd9     MOVFF     0xfd9,0xfe6    void Send_Download_resp(unsigned char t)                                         C:\Embedded\Joystick\jmain.c
0013da   ffe6                                                                                                               
0013dc   cfe1     MOVFF     0xfe1,0xfd9                                                                                     
0013de   ffd9                                                                                                               
                                           {                                                                                C:\Embedded\Joystick\jmain.c
0013e0   0101     MOVLB     0x1             TXB_B [CAN_OPEN_IdSdoTx].COMMAND.DOWNLOAD_RESPONSE.scs = SCS_SDO_DOWNLOAD_RESP; C:\Embedded\Joystick\jmain.c
0013e2   8b13     BSF       0x13,0x5,0x1                                                                                    
0013e4   9d13     BCF       0x13,0x6,0x1                                                                                    
0013e6   9f13     BCF       0x13,0x7,0x1                                                                                    
0013e8   0efe     MOVLW     0xfe            TXB_B [CAN_OPEN_IdSdoTx].COMMAND.DOWNLOAD_RESPONSE.t = t;                       C:\Embedded\Joystick\jmain.c
0013ea   50db     MOVF      0xdb,0x0,0x0                                                                                    
0013ec   9913     BCF       0x13,0x4,0x1                                                                                    
0013ee   b0e8     BTFSC     0xe8,0x0,0x0                                                                                    
0013f0   8913     BSF       0x13,0x4,0x1                                                                                    
0013f2   9113     BCF       0x13,0x0,0x1    TXB_B [CAN_OPEN_IdSdoTx].COMMAND.DOWNLOAD_RESPONSE.x = 0;                       C:\Embedded\Joystick\jmain.c
0013f4   9313     BCF       0x13,0x1,0x1                                                                                    
0013f6   9513     BCF       0x13,0x2,0x1                                                                                    
0013f8   9713     BCF       0x13,0x3,0x1                                                                                    
0013fa   8f17     BSF       0x17,0x7,0x1    TXB_B [CAN_OPEN_IdSdoTx].ST_B.OUT = 1;                                          C:\Embedded\Joystick\jmain.c
0013fc   52e5     MOVF      0xe5,0x1,0x0   }                                                                                C:\Embedded\Joystick\jmain.c
0013fe   cfe7     MOVFF     0xfe7,0xfd9                                                                                     
001400   ffd9                                                                                                               
001402   0012     RETURN    0x0                                                                                             
                                                                                                                            C:\Embedded\Joystick\jmain.c
                                           //***************************************************//                          C:\Embedded\Joystick\jmain.c
                                           //Prepare INIT_SDO_UPLOAD_RESPONSE                     //                        C:\Embedded\Joystick\jmain.c
                                           //***************************************************//                          C:\Embedded\Joystick\jmain.c
                                           void Send_Init_Upload_resp(void)                                                 C:\Embedded\Joystick\jmain.c
                                           {                                                                                C:\Embedded\Joystick\jmain.c
001404   0101     MOVLB     0x1             TXB_B [CAN_OPEN_IdSdoTx].COMMAND.INIT_DOWNLOAD_RESPONSE.scs = CCS_SDO_INIT_UPLOAD_RESP; C:\Embedded\Joystick\jmain.c
001406   9b13     BCF       0x13,0x5,0x1                                                                                    
001408   8d13     BSF       0x13,0x6,0x1                                                                                    
00140a   9f13     BCF       0x13,0x7,0x1                                                                                    
00140c   8f17     BSF       0x17,0x7,0x1    TXB_B [CAN_OPEN_IdSdoTx].ST_B.OUT = 1;                                          C:\Embedded\Joystick\jmain.c
00140e   0012     RETURN    0x0            }                                                                                C:\Embedded\Joystick\jmain.c
                                                                                                                            C:\Embedded\Joystick\jmain.c
                                           //***************************************************//                          C:\Embedded\Joystick\jmain.c
                                           //Prepare INIT_SDO_UPLOAD_RESPONSE                   //                          C:\Embedded\Joystick\jmain.c
                                           //***************************************************//                          C:\Embedded\Joystick\jmain.c
001410   cfd9     MOVFF     0xfd9,0xfe6    void Send_Upload_Segment(unsigned char n, unsigned char t, unsigned char c)      C:\Embedded\Joystick\jmain.c
001412   ffe6                                                                                                               
001414   cfe1     MOVFF     0xfe1,0xfd9                                                                                     
001416   ffd9                                                                                                               
                                           {                                                                                C:\Embedded\Joystick\jmain.c
001418   0101     MOVLB     0x1             TXB_B [CAN_OPEN_IdSdoTx].COMMAND.UPLOAD_SEGMT_RESP.scs = SCS_SDO_UPLOAD_SEG_RESP; C:\Embedded\Joystick\jmain.c
00141a   9b13     BCF       0x13,0x5,0x1                                                                                    
00141c   9d13     BCF       0x13,0x6,0x1                                                                                    
00141e   9f13     BCF       0x13,0x7,0x1                                                                                    
001420   0efe     MOVLW     0xfe            TXB_B [CAN_OPEN_IdSdoTx].COMMAND.UPLOAD_SEGMT_RESP.n = n;                       C:\Embedded\Joystick\jmain.c
001422   50db     MOVF      0xdb,0x0,0x0                                                                                    
001424   0b07     ANDLW     0x7                                                                                             
001426   6ef3     MOVWF     0xf3,0x0                                                                                        
001428   46f3     RLNCF     0xf3,0x1,0x0                                                                                    
00142a   0ef1     MOVLW     0xf1                                                                                            
00142c   1513     ANDWF     0x13,0x0,0x1                                                                                    
00142e   10f3     IORWF     0xf3,0x0,0x0                                                                                    
001430   6f13     MOVWF     0x13,0x1                                                                                        
001432   0efd     MOVLW     0xfd            TXB_B [CAN_OPEN_IdSdoTx].COMMAND.UPLOAD_SEGMT_RESP.t = t;                       C:\Embedded\Joystick\jmain.c
001434   50db     MOVF      0xdb,0x0,0x0                                                                                    
001436   9913     BCF       0x13,0x4,0x1                                                                                    
001438   b0e8     BTFSC     0xe8,0x0,0x0                                                                                    
00143a   8913     BSF       0x13,0x4,0x1                                                                                    
00143c   0efc     MOVLW     0xfc            TXB_B [CAN_OPEN_IdSdoTx].COMMAND.UPLOAD_SEGMT_RESP.c = c;                       C:\Embedded\Joystick\jmain.c
00143e   50db     MOVF      0xdb,0x0,0x0                                                                                    
001440   9113     BCF       0x13,0x0,0x1                                                                                    
001442   b0e8     BTFSC     0xe8,0x0,0x0                                                                                    
001444   8113     BSF       0x13,0x0,0x1                                                                                    
001446   8f17     BSF       0x17,0x7,0x1    TXB_B [CAN_OPEN_IdSdoTx].ST_B.OUT = 1;                                          C:\Embedded\Joystick\jmain.c
001448   52e5     MOVF      0xe5,0x1,0x0   }                                                                                C:\Embedded\Joystick\jmain.c
00144a   cfe7     MOVFF     0xfe7,0xfd9                                                                                     
00144c   ffd9                                                                                                               
00144e   0012     RETURN    0x0                                                                                             
                                                                                                                            C:\Embedded\Joystick\jmain.c
                                           //***************************************************//                          C:\Embedded\Joystick\jmain.c
                                           //Prepare SDO ABORT				                     //                                   C:\Embedded\Joystick\jmain.c
                                           //***************************************************//                          C:\Embedded\Joystick\jmain.c
001450   cfd9     MOVFF     0xfd9,0xfe6    void Send_SDO_Abort(int i, unsigned char s, char retcode)                        C:\Embedded\Joystick\jmain.c
001452   ffe6                                                                                                               
001454   cfe1     MOVFF     0xfe1,0xfd9                                                                                     
001456   ffd9                                                                                                               
001458   0e04     MOVLW     0x4                                                                                             
00145a   26e1     ADDWF     0xe1,0x1,0x0                                                                                    
                                           {                                                                                C:\Embedded\Joystick\jmain.c
                                                                                                                            C:\Embedded\Joystick\jmain.c
                                           M_ABORT abort_code;                                                              C:\Embedded\Joystick\jmain.c
                                                                                                                            C:\Embedded\Joystick\jmain.c
00145c   0efb     MOVLW     0xfb           	switch	(retcode)                                                                C:\Embedded\Joystick\jmain.c
00145e   50db     MOVF      0xdb,0x0,0x0                                                                                    
001460   0a1a     XORLW     0x1a                                                                                            
001462   e101     BNZ       0x1466                                                                                          
001464   d15f     BRA       0x1724                                                                                          
001466   0a03     XORLW     0x3                                                                                             
001468   e101     BNZ       0x146c                                                                                          
00146a   d151     BRA       0x170e                                                                                          
00146c   0a01     XORLW     0x1                                                                                             
00146e   e101     BNZ       0x1472                                                                                          
001470   d143     BRA       0x16f8                                                                                          
001472   0a0f     XORLW     0xf                                                                                             
001474   e101     BNZ       0x1478                                                                                          
001476   d135     BRA       0x16e2                                                                                          
001478   0a01     XORLW     0x1                                                                                             
00147a   e101     BNZ       0x147e                                                                                          
00147c   d12a     BRA       0x16d2                                                                                          
00147e   0a03     XORLW     0x3                                                                                             
001480   e101     BNZ       0x1484                                                                                          
001482   d11b     BRA       0x16ba                                                                                          
001484   0a01     XORLW     0x1                                                                                             
001486   e101     BNZ       0x148a                                                                                          
001488   d10c     BRA       0x16a2                                                                                          
00148a   0a07     XORLW     0x7                                                                                             
00148c   e101     BNZ       0x1490                                                                                          
00148e   d0fd     BRA       0x168a                                                                                          
001490   0a01     XORLW     0x1                                                                                             
001492   e101     BNZ       0x1496                                                                                          
001494   d0ee     BRA       0x1672                                                                                          
001496   0a03     XORLW     0x3                                                                                             
001498   e101     BNZ       0x149c                                                                                          
00149a   d0df     BRA       0x165a                                                                                          
00149c   0a01     XORLW     0x1                                                                                             
00149e   e101     BNZ       0x14a2                                                                                          
0014a0   d0d0     BRA       0x1642                                                                                          
0014a2   0a1f     XORLW     0x1f                                                                                            
0014a4   e101     BNZ       0x14a8                                                                                          
0014a6   d0c1     BRA       0x162a                                                                                          
0014a8   0a01     XORLW     0x1                                                                                             
0014aa   e101     BNZ       0x14ae                                                                                          
0014ac   d0b2     BRA       0x1612                                                                                          
0014ae   0a03     XORLW     0x3                                                                                             
0014b0   e101     BNZ       0x14b4                                                                                          
0014b2   d0a7     BRA       0x1602                                                                                          
0014b4   0a01     XORLW     0x1                                                                                             
0014b6   e101     BNZ       0x14ba                                                                                          
0014b8   d098     BRA       0x15ea                                                                                          
0014ba   0a07     XORLW     0x7                                                                                             
0014bc   e101     BNZ       0x14c0                                                                                          
0014be   d089     BRA       0x15d2                                                                                          
0014c0   0a01     XORLW     0x1                                                                                             
0014c2   e101     BNZ       0x14c6                                                                                          
0014c4   d07a     BRA       0x15ba                                                                                          
0014c6   0a03     XORLW     0x3                                                                                             
0014c8   e06c     BZ        0x15a2                                                                                          
0014ca   0a01     XORLW     0x1                                                                                             
0014cc   e061     BZ        0x1590                                                                                          
0014ce   0a0f     XORLW     0xf                                                                                             
0014d0   e054     BZ        0x157a                                                                                          
0014d2   0a01     XORLW     0x1                                                                                             
0014d4   e046     BZ        0x1562                                                                                          
0014d6   0a03     XORLW     0x3                                                                                             
0014d8   e03b     BZ        0x1550                                                                                          
0014da   0a01     XORLW     0x1                                                                                             
0014dc   e02e     BZ        0x153a                                                                                          
0014de   0a07     XORLW     0x7                                                                                             
0014e0   e020     BZ        0x1522                                                                                          
0014e2   0a01     XORLW     0x1                                                                                             
0014e4   e015     BZ        0x1510                                                                                          
0014e6   0a03     XORLW     0x3                                                                                             
0014e8   e00a     BZ        0x14fe                                                                                          
0014ea   0a01     XORLW     0x1                                                                                             
0014ec   e001     BZ        0x14f0                                                                                          
0014ee   d125     BRA       0x173a                                                                                          
                                           	{                                                                               C:\Embedded\Joystick\jmain.c
                                           	case	E_SUCCESS:                                                                 C:\Embedded\Joystick\jmain.c
0014f0   6ade     CLRF      0xde,0x0       			abort_code.high = 0x00; abort_code.low = 0;                                   C:\Embedded\Joystick\jmain.c
0014f2   6add     CLRF      0xdd,0x0                                                                                        
0014f4   0e02     MOVLW     0x2                                                                                             
0014f6   6adb     CLRF      0xdb,0x0                                                                                        
0014f8   0e03     MOVLW     0x3                                                                                             
0014fa   6adb     CLRF      0xdb,0x0                                                                                        
0014fc   d13d     BRA       0x1778         			return ;                                                                      C:\Embedded\Joystick\jmain.c
                                                                                                                            C:\Embedded\Joystick\jmain.c
                                           	case	E_TOGGLE:                                                                  C:\Embedded\Joystick\jmain.c
0014fe   0e03     MOVLW     0x3            			abort_code.high = 0x503; abort_code.low = 0;                                  C:\Embedded\Joystick\jmain.c
001500   6ede     MOVWF     0xde,0x0                                                                                        
001502   0e05     MOVLW     0x5                                                                                             
001504   6edd     MOVWF     0xdd,0x0                                                                                        
001506   0e02     MOVLW     0x2                                                                                             
001508   6adb     CLRF      0xdb,0x0                                                                                        
00150a   0e03     MOVLW     0x3                                                                                             
00150c   6adb     CLRF      0xdb,0x0                                                                                        
00150e   d115     BRA       0x173a         			break;                                                                        C:\Embedded\Joystick\jmain.c
                                                                                                                            C:\Embedded\Joystick\jmain.c
                                           	case	E_SDO_TIME:                                                                C:\Embedded\Joystick\jmain.c
001510   0e04     MOVLW     0x4            			abort_code.high = 0x504; abort_code.low = 0;                                  C:\Embedded\Joystick\jmain.c
001512   6ede     MOVWF     0xde,0x0                                                                                        
001514   0e05     MOVLW     0x5                                                                                             
001516   6edd     MOVWF     0xdd,0x0                                                                                        
001518   0e02     MOVLW     0x2                                                                                             
00151a   6adb     CLRF      0xdb,0x0                                                                                        
00151c   0e03     MOVLW     0x3                                                                                             
00151e   6adb     CLRF      0xdb,0x0                                                                                        
001520   d10c     BRA       0x173a         			break;                                                                        C:\Embedded\Joystick\jmain.c
                                                                                                                            C:\Embedded\Joystick\jmain.c
                                           	case	E_CS_CMD:                                                                  C:\Embedded\Joystick\jmain.c
001522   0e04     MOVLW     0x4            			abort_code.high = 0x504; abort_code.low = 1;                                  C:\Embedded\Joystick\jmain.c
001524   6ede     MOVWF     0xde,0x0                                                                                        
001526   0e05     MOVLW     0x5                                                                                             
001528   6edd     MOVWF     0xdd,0x0                                                                                        
00152a   0e01     MOVLW     0x1                                                                                             
00152c   6ef3     MOVWF     0xf3,0x0                                                                                        
00152e   0e02     MOVLW     0x2                                                                                             
001530   cff3     MOVFF     0xff3,0xfdb                                                                                     
001532   ffdb                                                                                                               
001534   0e03     MOVLW     0x3                                                                                             
001536   6adb     CLRF      0xdb,0x0                                                                                        
001538   d100     BRA       0x173a         			break;                                                                        C:\Embedded\Joystick\jmain.c
                                                                                                                            C:\Embedded\Joystick\jmain.c
                                           	case	E_MEMORY_OUT:                                                              C:\Embedded\Joystick\jmain.c
00153a   0e04     MOVLW     0x4            			abort_code.high = 0x504; abort_code.low = 5;                                  C:\Embedded\Joystick\jmain.c
00153c   6ede     MOVWF     0xde,0x0                                                                                        
00153e   0e05     MOVLW     0x5                                                                                             
001540   6edd     MOVWF     0xdd,0x0                                                                                        
001542   6ef3     MOVWF     0xf3,0x0                                                                                        
001544   0e02     MOVLW     0x2                                                                                             
001546   cff3     MOVFF     0xff3,0xfdb                                                                                     
001548   ffdb                                                                                                               
00154a   0e03     MOVLW     0x3                                                                                             
00154c   6adb     CLRF      0xdb,0x0                                                                                        
00154e   d0f5     BRA       0x173a         			break;                                                                        C:\Embedded\Joystick\jmain.c
                                                                                                                            C:\Embedded\Joystick\jmain.c
                                           	case	E_UNSUPP_ACCESS:                                                           C:\Embedded\Joystick\jmain.c
001550   0e01     MOVLW     0x1            			abort_code.high = 0x601; abort_code.low = 0;                                  C:\Embedded\Joystick\jmain.c
001552   6ede     MOVWF     0xde,0x0                                                                                        
001554   0e06     MOVLW     0x6                                                                                             
001556   6edd     MOVWF     0xdd,0x0                                                                                        
001558   0e02     MOVLW     0x2                                                                                             
00155a   6adb     CLRF      0xdb,0x0                                                                                        
00155c   0e03     MOVLW     0x3                                                                                             
00155e   6adb     CLRF      0xdb,0x0                                                                                        
001560   d0ec     BRA       0x173a         			break;                                                                        C:\Embedded\Joystick\jmain.c
                                                                                                                            C:\Embedded\Joystick\jmain.c
                                           	case	E_CANNOT_READ:                                                             C:\Embedded\Joystick\jmain.c
001562   0e01     MOVLW     0x1            			abort_code.high = 0x601; abort_code.low = 1;                                  C:\Embedded\Joystick\jmain.c
001564   6ede     MOVWF     0xde,0x0                                                                                        
001566   0e06     MOVLW     0x6                                                                                             
001568   6edd     MOVWF     0xdd,0x0                                                                                        
00156a   0e01     MOVLW     0x1                                                                                             
00156c   6ef3     MOVWF     0xf3,0x0                                                                                        
00156e   0e02     MOVLW     0x2                                                                                             
001570   cff3     MOVFF     0xff3,0xfdb                                                                                     
001572   ffdb                                                                                                               
001574   0e03     MOVLW     0x3                                                                                             
001576   6adb     CLRF      0xdb,0x0                                                                                        
001578   d0e0     BRA       0x173a         			break;                                                                        C:\Embedded\Joystick\jmain.c
                                                                                                                            C:\Embedded\Joystick\jmain.c
                                           	case	E_CANNOT_WRITE:                                                            C:\Embedded\Joystick\jmain.c
00157a   0e01     MOVLW     0x1            			abort_code.high = 0x601; abort_code.low = 2;                                  C:\Embedded\Joystick\jmain.c
00157c   6ede     MOVWF     0xde,0x0                                                                                        
00157e   0e06     MOVLW     0x6                                                                                             
001580   6edd     MOVWF     0xdd,0x0                                                                                        
001582   0e02     MOVLW     0x2                                                                                             
001584   6ef3     MOVWF     0xf3,0x0                                                                                        
001586   cff3     MOVFF     0xff3,0xfdb                                                                                     
001588   ffdb                                                                                                               
00158a   0e03     MOVLW     0x3                                                                                             
00158c   6adb     CLRF      0xdb,0x0                                                                                        
00158e   d0d5     BRA       0x173a         			break;                                                                        C:\Embedded\Joystick\jmain.c
                                                                                                                            C:\Embedded\Joystick\jmain.c
                                           	case	E_OBJ_NOT_FOUND:                                                           C:\Embedded\Joystick\jmain.c
001590   0e02     MOVLW     0x2            			abort_code.high = 0x602; abort_code.low = 0;                                  C:\Embedded\Joystick\jmain.c
001592   6ede     MOVWF     0xde,0x0                                                                                        
001594   0e06     MOVLW     0x6                                                                                             
001596   6edd     MOVWF     0xdd,0x0                                                                                        
001598   0e02     MOVLW     0x2                                                                                             
00159a   6adb     CLRF      0xdb,0x0                                                                                        
00159c   0e03     MOVLW     0x3                                                                                             
00159e   6adb     CLRF      0xdb,0x0                                                                                        
0015a0   d0cc     BRA       0x173a         			break;                                                                        C:\Embedded\Joystick\jmain.c
                                                                                                                            C:\Embedded\Joystick\jmain.c
                                           	case	E_OBJ_CANNOT_MAP:                                                          C:\Embedded\Joystick\jmain.c
0015a2   0e04     MOVLW     0x4            			abort_code.high = 0x604; abort_code.low = 0x41;                               C:\Embedded\Joystick\jmain.c
0015a4   6ede     MOVWF     0xde,0x0                                                                                        
0015a6   0e06     MOVLW     0x6                                                                                             
0015a8   6edd     MOVWF     0xdd,0x0                                                                                        
0015aa   0e41     MOVLW     0x41                                                                                            
0015ac   6ef3     MOVWF     0xf3,0x0                                                                                        
0015ae   0e02     MOVLW     0x2                                                                                             
0015b0   cff3     MOVFF     0xff3,0xfdb                                                                                     
0015b2   ffdb                                                                                                               
0015b4   0e03     MOVLW     0x3                                                                                             
0015b6   6adb     CLRF      0xdb,0x0                                                                                        
0015b8   d0c0     BRA       0x173a         			break;                                                                        C:\Embedded\Joystick\jmain.c
                                                                                                                            C:\Embedded\Joystick\jmain.c
                                           	case	E_OBJ_MAP_LEN:                                                             C:\Embedded\Joystick\jmain.c
0015ba   0e04     MOVLW     0x4            			abort_code.high = 0x604; abort_code.low = 0x42;                               C:\Embedded\Joystick\jmain.c
0015bc   6ede     MOVWF     0xde,0x0                                                                                        
0015be   0e06     MOVLW     0x6                                                                                             
0015c0   6edd     MOVWF     0xdd,0x0                                                                                        
0015c2   0e42     MOVLW     0x42                                                                                            
0015c4   6ef3     MOVWF     0xf3,0x0                                                                                        
0015c6   0e02     MOVLW     0x2                                                                                             
0015c8   cff3     MOVFF     0xff3,0xfdb                                                                                     
0015ca   ffdb                                                                                                               
0015cc   0e03     MOVLW     0x3                                                                                             
0015ce   6adb     CLRF      0xdb,0x0                                                                                        
0015d0   d0b4     BRA       0x173a         			break;                                                                        C:\Embedded\Joystick\jmain.c
                                                                                                                            C:\Embedded\Joystick\jmain.c
                                           	case	E_GEN_PARAM_COMP:                                                          C:\Embedded\Joystick\jmain.c
0015d2   0e04     MOVLW     0x4            			abort_code.high = 0x604; abort_code.low = 0x47;                               C:\Embedded\Joystick\jmain.c
0015d4   6ede     MOVWF     0xde,0x0                                                                                        
0015d6   0e06     MOVLW     0x6                                                                                             
0015d8   6edd     MOVWF     0xdd,0x0                                                                                        
0015da   0e47     MOVLW     0x47                                                                                            
0015dc   6ef3     MOVWF     0xf3,0x0                                                                                        
0015de   0e02     MOVLW     0x2                                                                                             
0015e0   cff3     MOVFF     0xff3,0xfdb                                                                                     
0015e2   ffdb                                                                                                               
0015e4   0e03     MOVLW     0x3                                                                                             
0015e6   6adb     CLRF      0xdb,0x0                                                                                        
0015e8   d0a8     BRA       0x173a         			break;                                                                        C:\Embedded\Joystick\jmain.c
                                                                                                                            C:\Embedded\Joystick\jmain.c
                                           	case	E_GEN_INTERNAL_COMP:                                                       C:\Embedded\Joystick\jmain.c
0015ea   0e04     MOVLW     0x4            			abort_code.high = 0x604; abort_code.low = 0x43;                               C:\Embedded\Joystick\jmain.c
0015ec   6ede     MOVWF     0xde,0x0                                                                                        
0015ee   0e06     MOVLW     0x6                                                                                             
0015f0   6edd     MOVWF     0xdd,0x0                                                                                        
0015f2   0e43     MOVLW     0x43                                                                                            
0015f4   6ef3     MOVWF     0xf3,0x0                                                                                        
0015f6   0e02     MOVLW     0x2                                                                                             
0015f8   cff3     MOVFF     0xff3,0xfdb                                                                                     
0015fa   ffdb                                                                                                               
0015fc   0e03     MOVLW     0x3                                                                                             
0015fe   6adb     CLRF      0xdb,0x0                                                                                        
001600   d09c     BRA       0x173a         			break;                                                                        C:\Embedded\Joystick\jmain.c
                                                                                                                            C:\Embedded\Joystick\jmain.c
                                           	case	E_HARDWARE:                                                                C:\Embedded\Joystick\jmain.c
001602   0e06     MOVLW     0x6            			abort_code.high = 0x606; abort_code.low = 0;                                  C:\Embedded\Joystick\jmain.c
001604   6ede     MOVWF     0xde,0x0                                                                                        
001606   6edd     MOVWF     0xdd,0x0                                                                                        
001608   0e02     MOVLW     0x2                                                                                             
00160a   6adb     CLRF      0xdb,0x0                                                                                        
00160c   0e03     MOVLW     0x3                                                                                             
00160e   6adb     CLRF      0xdb,0x0                                                                                        
001610   d094     BRA       0x173a         			break;                                                                        C:\Embedded\Joystick\jmain.c
                                                                                                                            C:\Embedded\Joystick\jmain.c
                                           	case	E_LEN_SERVICE:                                                             C:\Embedded\Joystick\jmain.c
001612   0e07     MOVLW     0x7            			abort_code.high = 0x607; abort_code.low = 0x10;                               C:\Embedded\Joystick\jmain.c
001614   6ede     MOVWF     0xde,0x0                                                                                        
001616   0e06     MOVLW     0x6                                                                                             
001618   6edd     MOVWF     0xdd,0x0                                                                                        
00161a   0e10     MOVLW     0x10                                                                                            
00161c   6ef3     MOVWF     0xf3,0x0                                                                                        
00161e   0e02     MOVLW     0x2                                                                                             
001620   cff3     MOVFF     0xff3,0xfdb                                                                                     
001622   ffdb                                                                                                               
001624   0e03     MOVLW     0x3                                                                                             
001626   6adb     CLRF      0xdb,0x0                                                                                        
001628   d088     BRA       0x173a         			break;                                                                        C:\Embedded\Joystick\jmain.c
                                                                                                                            C:\Embedded\Joystick\jmain.c
                                           	case	E_LEN_SERVICE_HIGH:                                                        C:\Embedded\Joystick\jmain.c
00162a   0e07     MOVLW     0x7            			abort_code.high = 0x607; abort_code.low = 0x12;                               C:\Embedded\Joystick\jmain.c
00162c   6ede     MOVWF     0xde,0x0                                                                                        
00162e   0e06     MOVLW     0x6                                                                                             
001630   6edd     MOVWF     0xdd,0x0                                                                                        
001632   0e12     MOVLW     0x12                                                                                            
001634   6ef3     MOVWF     0xf3,0x0                                                                                        
001636   0e02     MOVLW     0x2                                                                                             
001638   cff3     MOVFF     0xff3,0xfdb                                                                                     
00163a   ffdb                                                                                                               
00163c   0e03     MOVLW     0x3                                                                                             
00163e   6adb     CLRF      0xdb,0x0                                                                                        
001640   d07c     BRA       0x173a         			break;                                                                        C:\Embedded\Joystick\jmain.c
                                                                                                                            C:\Embedded\Joystick\jmain.c
                                           	case	E_LEN_SERVICE_LOW:                                                         C:\Embedded\Joystick\jmain.c
001642   0e07     MOVLW     0x7            			abort_code.high = 0x607; abort_code.low = 0x13;                               C:\Embedded\Joystick\jmain.c
001644   6ede     MOVWF     0xde,0x0                                                                                        
001646   0e06     MOVLW     0x6                                                                                             
001648   6edd     MOVWF     0xdd,0x0                                                                                        
00164a   0e13     MOVLW     0x13                                                                                            
00164c   6ef3     MOVWF     0xf3,0x0                                                                                        
00164e   0e02     MOVLW     0x2                                                                                             
001650   cff3     MOVFF     0xff3,0xfdb                                                                                     
001652   ffdb                                                                                                               
001654   0e03     MOVLW     0x3                                                                                             
001656   6adb     CLRF      0xdb,0x0                                                                                        
001658   d070     BRA       0x173a         			break;                                                                        C:\Embedded\Joystick\jmain.c
                                                                                                                            C:\Embedded\Joystick\jmain.c
                                           	case	E_SUBINDEX_NOT_FOUND:                                                      C:\Embedded\Joystick\jmain.c
00165a   0e09     MOVLW     0x9            			abort_code.high = 0x609; abort_code.low = 0x11;                               C:\Embedded\Joystick\jmain.c
00165c   6ede     MOVWF     0xde,0x0                                                                                        
00165e   0e06     MOVLW     0x6                                                                                             
001660   6edd     MOVWF     0xdd,0x0                                                                                        
001662   0e11     MOVLW     0x11                                                                                            
001664   6ef3     MOVWF     0xf3,0x0                                                                                        
001666   0e02     MOVLW     0x2                                                                                             
001668   cff3     MOVFF     0xff3,0xfdb                                                                                     
00166a   ffdb                                                                                                               
00166c   0e03     MOVLW     0x3                                                                                             
00166e   6adb     CLRF      0xdb,0x0                                                                                        
001670   d064     BRA       0x173a         			break;                                                                        C:\Embedded\Joystick\jmain.c
                                                                                                                            C:\Embedded\Joystick\jmain.c
                                           	case	E_PARAM_RANGE:                                                             C:\Embedded\Joystick\jmain.c
001672   0e09     MOVLW     0x9            			abort_code.high = 0x609; abort_code.low = 0x30;                               C:\Embedded\Joystick\jmain.c
001674   6ede     MOVWF     0xde,0x0                                                                                        
001676   0e06     MOVLW     0x6                                                                                             
001678   6edd     MOVWF     0xdd,0x0                                                                                        
00167a   0e30     MOVLW     0x30                                                                                            
00167c   6ef3     MOVWF     0xf3,0x0                                                                                        
00167e   0e02     MOVLW     0x2                                                                                             
001680   cff3     MOVFF     0xff3,0xfdb                                                                                     
001682   ffdb                                                                                                               
001684   0e03     MOVLW     0x3                                                                                             
001686   6adb     CLRF      0xdb,0x0                                                                                        
001688   d058     BRA       0x173a         			break;                                                                        C:\Embedded\Joystick\jmain.c
                                                                                                                            C:\Embedded\Joystick\jmain.c
                                           	case	E_PARAM_HIGH:                                                              C:\Embedded\Joystick\jmain.c
00168a   0e09     MOVLW     0x9            			abort_code.high = 0x609; abort_code.low = 0x31;                               C:\Embedded\Joystick\jmain.c
00168c   6ede     MOVWF     0xde,0x0                                                                                        
00168e   0e06     MOVLW     0x6                                                                                             
001690   6edd     MOVWF     0xdd,0x0                                                                                        
001692   0e31     MOVLW     0x31                                                                                            
001694   6ef3     MOVWF     0xf3,0x0                                                                                        
001696   0e02     MOVLW     0x2                                                                                             
001698   cff3     MOVFF     0xff3,0xfdb                                                                                     
00169a   ffdb                                                                                                               
00169c   0e03     MOVLW     0x3                                                                                             
00169e   6adb     CLRF      0xdb,0x0                                                                                        
0016a0   d04c     BRA       0x173a         			break;                                                                        C:\Embedded\Joystick\jmain.c
                                                                                                                            C:\Embedded\Joystick\jmain.c
                                           	case	E_PARAM_LOW:                                                               C:\Embedded\Joystick\jmain.c
0016a2   0e09     MOVLW     0x9            			abort_code.high = 0x609; abort_code.low = 0x32;                               C:\Embedded\Joystick\jmain.c
0016a4   6ede     MOVWF     0xde,0x0                                                                                        
0016a6   0e06     MOVLW     0x6                                                                                             
0016a8   6edd     MOVWF     0xdd,0x0                                                                                        
0016aa   0e32     MOVLW     0x32                                                                                            
0016ac   6ef3     MOVWF     0xf3,0x0                                                                                        
0016ae   0e02     MOVLW     0x2                                                                                             
0016b0   cff3     MOVFF     0xff3,0xfdb                                                                                     
0016b2   ffdb                                                                                                               
0016b4   0e03     MOVLW     0x3                                                                                             
0016b6   6adb     CLRF      0xdb,0x0                                                                                        
0016b8   d040     BRA       0x173a         			break;                                                                        C:\Embedded\Joystick\jmain.c
                                                                                                                            C:\Embedded\Joystick\jmain.c
                                           	case	E_MAX_LT_MIN:                                                              C:\Embedded\Joystick\jmain.c
0016ba   0e09     MOVLW     0x9            			abort_code.high = 0x609; abort_code.low = 0x36;                               C:\Embedded\Joystick\jmain.c
0016bc   6ede     MOVWF     0xde,0x0                                                                                        
0016be   0e06     MOVLW     0x6                                                                                             
0016c0   6edd     MOVWF     0xdd,0x0                                                                                        
0016c2   0e36     MOVLW     0x36                                                                                            
0016c4   6ef3     MOVWF     0xf3,0x0                                                                                        
0016c6   0e02     MOVLW     0x2                                                                                             
0016c8   cff3     MOVFF     0xff3,0xfdb                                                                                     
0016ca   ffdb                                                                                                               
0016cc   0e03     MOVLW     0x3                                                                                             
0016ce   6adb     CLRF      0xdb,0x0                                                                                        
0016d0   d034     BRA       0x173a         			break;                                                                        C:\Embedded\Joystick\jmain.c
                                                                                                                            C:\Embedded\Joystick\jmain.c
                                           	case	E_GENERAL:                                                                 C:\Embedded\Joystick\jmain.c
0016d2   6ade     CLRF      0xde,0x0       			abort_code.high = 0x800; abort_code.low = 0;                                  C:\Embedded\Joystick\jmain.c
0016d4   0e08     MOVLW     0x8                                                                                             
0016d6   6edd     MOVWF     0xdd,0x0                                                                                        
0016d8   0e02     MOVLW     0x2                                                                                             
0016da   6adb     CLRF      0xdb,0x0                                                                                        
0016dc   0e03     MOVLW     0x3                                                                                             
0016de   6adb     CLRF      0xdb,0x0                                                                                        
0016e0   d02c     BRA       0x173a         			break;                                                                        C:\Embedded\Joystick\jmain.c
                                                                                                                            C:\Embedded\Joystick\jmain.c
                                           	case	E_TRANSFER:                                                                C:\Embedded\Joystick\jmain.c
0016e2   6ade     CLRF      0xde,0x0       			abort_code.high = 0x800; abort_code.low = 0x20;                               C:\Embedded\Joystick\jmain.c
0016e4   0e08     MOVLW     0x8                                                                                             
0016e6   6edd     MOVWF     0xdd,0x0                                                                                        
0016e8   0e20     MOVLW     0x20                                                                                            
0016ea   6ef3     MOVWF     0xf3,0x0                                                                                        
0016ec   0e02     MOVLW     0x2                                                                                             
0016ee   cff3     MOVFF     0xff3,0xfdb                                                                                     
0016f0   ffdb                                                                                                               
0016f2   0e03     MOVLW     0x3                                                                                             
0016f4   6adb     CLRF      0xdb,0x0                                                                                        
0016f6   d021     BRA       0x173a         			break;                                                                        C:\Embedded\Joystick\jmain.c
                                                                                                                            C:\Embedded\Joystick\jmain.c
                                           	case	E_LOCAL_CONTROL:                                                           C:\Embedded\Joystick\jmain.c
0016f8   6ade     CLRF      0xde,0x0       			abort_code.high = 0x800; abort_code.low = 21;                                 C:\Embedded\Joystick\jmain.c
0016fa   0e08     MOVLW     0x8                                                                                             
0016fc   6edd     MOVWF     0xdd,0x0                                                                                        
0016fe   0e15     MOVLW     0x15                                                                                            
001700   6ef3     MOVWF     0xf3,0x0                                                                                        
001702   0e02     MOVLW     0x2                                                                                             
001704   cff3     MOVFF     0xff3,0xfdb                                                                                     
001706   ffdb                                                                                                               
001708   0e03     MOVLW     0x3                                                                                             
00170a   6adb     CLRF      0xdb,0x0                                                                                        
00170c   d016     BRA       0x173a         			break;                                                                        C:\Embedded\Joystick\jmain.c
                                                                                                                            C:\Embedded\Joystick\jmain.c
                                           	case	E_DEV_STATE:                                                               C:\Embedded\Joystick\jmain.c
00170e   6ade     CLRF      0xde,0x0       			abort_code.high = 0x800; abort_code.low = 22;                                 C:\Embedded\Joystick\jmain.c
001710   0e08     MOVLW     0x8                                                                                             
001712   6edd     MOVWF     0xdd,0x0                                                                                        
001714   0e16     MOVLW     0x16                                                                                            
001716   6ef3     MOVWF     0xf3,0x0                                                                                        
001718   0e02     MOVLW     0x2                                                                                             
00171a   cff3     MOVFF     0xff3,0xfdb                                                                                     
00171c   ffdb                                                                                                               
00171e   0e03     MOVLW     0x3                                                                                             
001720   6adb     CLRF      0xdb,0x0                                                                                        
001722   d00b     BRA       0x173a         			break;                                                                        C:\Embedded\Joystick\jmain.c
                                                                                                                            C:\Embedded\Joystick\jmain.c
                                           	case	E_NO_DICTIONARY:                                                           C:\Embedded\Joystick\jmain.c
001724   6ade     CLRF      0xde,0x0       			abort_code.high = 0x800; abort_code.low = 23;                                 C:\Embedded\Joystick\jmain.c
001726   0e08     MOVLW     0x8                                                                                             
001728   6edd     MOVWF     0xdd,0x0                                                                                        
00172a   0e17     MOVLW     0x17                                                                                            
00172c   6ef3     MOVWF     0xf3,0x0                                                                                        
00172e   0e02     MOVLW     0x2                                                                                             
001730   cff3     MOVFF     0xff3,0xfdb                                                                                     
001732   ffdb                                                                                                               
001734   0e03     MOVLW     0x3                                                                                             
001736   6adb     CLRF      0xdb,0x0                                                                                        
001738   d000     BRA       0x173a         			break;                                                                        C:\Embedded\Joystick\jmain.c
                                           	}                                                                               C:\Embedded\Joystick\jmain.c
                                                                                                                            C:\Embedded\Joystick\jmain.c
00173a   0101     MOVLB     0x1             TXB_B [CAN_OPEN_IdSdoTx].COMMAND.ABORT_SDO.cs = CS_SDO_ABORT;                   C:\Embedded\Joystick\jmain.c
00173c   9b13     BCF       0x13,0x5,0x1                                                                                    
00173e   9d13     BCF       0x13,0x6,0x1                                                                                    
001740   8f13     BSF       0x13,0x7,0x1                                                                                    
001742   9113     BCF       0x13,0x0,0x1    TXB_B [CAN_OPEN_IdSdoTx].COMMAND.ABORT_SDO.x = 0;                               C:\Embedded\Joystick\jmain.c
001744   9313     BCF       0x13,0x1,0x1                                                                                    
001746   9513     BCF       0x13,0x2,0x1                                                                                    
001748   9713     BCF       0x13,0x3,0x1                                                                                    
00174a   9913     BCF       0x13,0x4,0x1                                                                                    
00174c   0efd     MOVLW     0xfd            TXB_B [CAN_OPEN_IdSdoTx].INDEX = i;                                             C:\Embedded\Joystick\jmain.c
00174e   cfdb     MOVFF     0xfdb,0x111                                                                                     
001750   f111                                                                                                               
001752   0efe     MOVLW     0xfe                                                                                            
001754   cfdb     MOVFF     0xfdb,0x112                                                                                     
001756   f112                                                                                                               
001758   0efc     MOVLW     0xfc            TXB_B [CAN_OPEN_IdSdoTx].SUB_INDEX = s;                                         C:\Embedded\Joystick\jmain.c
00175a   cfdb     MOVFF     0xfdb,0x110                                                                                     
00175c   f110                                                                                                               
00175e   0e02     MOVLW     0x2             TXB_B [CAN_OPEN_IdSdoTx].B0 = abort_code.b1;                                    C:\Embedded\Joystick\jmain.c
001760   cfdb     MOVFF     0xfdb,0x10f                                                                                     
001762   f10f                                                                                                               
001764   0e03     MOVLW     0x3             TXB_B [CAN_OPEN_IdSdoTx].B1 = abort_code.b0;                                    C:\Embedded\Joystick\jmain.c
001766   cfdb     MOVFF     0xfdb,0x10e                                                                                     
001768   f10e                                                                                                               
00176a   cfdf     MOVFF     0xfdf,0x10d     TXB_B [CAN_OPEN_IdSdoTx].B2 = abort_code.b3;                                    C:\Embedded\Joystick\jmain.c
00176c   f10d                                                                                                               
00176e   0e01     MOVLW     0x1             TXB_B [CAN_OPEN_IdSdoTx].B3 = abort_code.b2;                                    C:\Embedded\Joystick\jmain.c
001770   cfdb     MOVFF     0xfdb,0x10c                                                                                     
001772   f10c                                                                                                               
001774   8f17     BSF       0x17,0x7,0x1    TXB_B [CAN_OPEN_IdSdoTx].ST_B.OUT = 1;                                          C:\Embedded\Joystick\jmain.c
001776   6b92     CLRF      0x92,0x1        SDO_Process = CAN_NOTHING;                                                      C:\Embedded\Joystick\jmain.c
                                                                                                                            C:\Embedded\Joystick\jmain.c
001778   0e04     MOVLW     0x4            }                                                                                C:\Embedded\Joystick\jmain.c
00177a   5ce1     SUBWF     0xe1,0x0,0x0                                                                                    
00177c   e202     BC        0x1782                                                                                          
00177e   6ae1     CLRF      0xe1,0x0                                                                                        
001780   52e5     MOVF      0xe5,0x1,0x0                                                                                    
001782   6ee1     MOVWF     0xe1,0x0                                                                                        
001784   52e5     MOVF      0xe5,0x1,0x0                                                                                    
001786   cfe7     MOVFF     0xfe7,0xfd9                                                                                     
001788   ffd9                                                                                                               
00178a   0012     RETURN    0x0                                                                                             
                                                                                                                            C:\Embedded\Joystick\jmain.c
                                           //***************************************************//                          C:\Embedded\Joystick\jmain.c
                                           // Unpack a CANOpen message                            //                        C:\Embedded\Joystick\jmain.c
                                           //***************************************************//                          C:\Embedded\Joystick\jmain.c
00178c   cfd9     MOVFF     0xfd9,0xfe6    void CanIn(void)                                                                 C:\Embedded\Joystick\jmain.c
00178e   ffe6                                                                                                               
001790   cfe1     MOVFF     0xfe1,0xfd9                                                                                     
001792   ffd9                                                                                                               
001794   0e03     MOVLW     0x3                                                                                             
001796   26e1     ADDWF     0xe1,0x1,0x0                                                                                    
                                           {                                                                                C:\Embedded\Joystick\jmain.c
                                            char k;                                                                         C:\Embedded\Joystick\jmain.c
                                            unsigned int Id_p;                                                              C:\Embedded\Joystick\jmain.c
                                                                                                                            C:\Embedded\Joystick\jmain.c
001798   0101     MOVLB     0x1              if (RXB_B [CAN_OPEN_IdNet].ST_B.IN)		//NMT COB-ID=x0000                        C:\Embedded\Joystick\jmain.c
00179a   ad6b     BTFSS     0x6b,0x6,0x1                                                                                    
00179c   d04d     BRA       0x1838                                                                                          
                                              {                                                                             C:\Embedded\Joystick\jmain.c
00179e   9d6b     BCF       0x6b,0x6,0x1       RXB_B [CAN_OPEN_IdNet].ST_B.IN = 0;                                          C:\Embedded\Joystick\jmain.c
                                                                                                                            C:\Embedded\Joystick\jmain.c
0017a0   5167     MOVF      0x67,0x0,0x1   	switch (RXB_B [CAN_OPEN_IdNet].TXBD0)                                           C:\Embedded\Joystick\jmain.c
0017a2   0a81     XORLW     0x81                                                                                            
0017a4   e037     BZ        0x1814                                                                                          
0017a6   0a01     XORLW     0x1                                                                                             
0017a8   e025     BZ        0x17f4                                                                                          
0017aa   0a82     XORLW     0x82                                                                                            
0017ac   e013     BZ        0x17d4                                                                                          
0017ae   0a03     XORLW     0x3                                                                                             
0017b0   e001     BZ        0x17b4                                                                                          
0017b2   d042     BRA       0x1838                                                                                          
                                           		{                                                                              C:\Embedded\Joystick\jmain.c
                                                                                                                            C:\Embedded\Joystick\jmain.c
                                           		case CAN_REQUEST_START:                                                        C:\Embedded\Joystick\jmain.c
                                           		{                                                                              C:\Embedded\Joystick\jmain.c
0017b4   5166     MOVF      0x66,0x0,0x1   			if (RXB_B [CAN_OPEN_IdNet].TXBD1 == 0 || RXB_B [CAN_OPEN_IdNet].TXBD1 == Id) // if all or me C:\Embedded\Joystick\jmain.c
0017b6   e009     BZ        0x17ca                                                                                          
0017b8   5166     MOVF      0x66,0x0,0x1                                                                                    
0017ba   6e00     MOVWF     0x0,0x0                                                                                         
0017bc   6a01     CLRF      0x1,0x0                                                                                         
0017be   518d     MOVF      0x8d,0x0,0x1                                                                                    
0017c0   1800     XORWF     0x0,0x0,0x0                                                                                     
0017c2   e102     BNZ       0x17c8                                                                                          
0017c4   518e     MOVF      0x8e,0x0,0x1                                                                                    
0017c6   1801     XORWF     0x1,0x0,0x0                                                                                     
0017c8   e104     BNZ       0x17d2                                                                                          
                                           			{                                                                             C:\Embedded\Joystick\jmain.c
0017ca   0101     MOVLB     0x1            				StatoUnita = CAN_STATE_OPERATIONAL;                                          C:\Embedded\Joystick\jmain.c
0017cc   0e05     MOVLW     0x5                                                                                             
0017ce   6ffb     MOVWF     0xfb,0x1                                                                                        
0017d0   d86a     RCALL     0x18a6         				device_enable();                                                             C:\Embedded\Joystick\jmain.c
                                           			}                                                                             C:\Embedded\Joystick\jmain.c
0017d2   d032     BRA       0x1838         		break;                                                                         C:\Embedded\Joystick\jmain.c
                                           		}                                                                              C:\Embedded\Joystick\jmain.c
                                           		case CAN_REQUEST_STOP:      // STOP                                            C:\Embedded\Joystick\jmain.c
                                           		{                                                                              C:\Embedded\Joystick\jmain.c
0017d4   5166     MOVF      0x66,0x0,0x1   			if (RXB_B [CAN_OPEN_IdNet].TXBD1 == 0 || RXB_B [CAN_OPEN_IdNet].TXBD1 == Id) // if all or me C:\Embedded\Joystick\jmain.c
0017d6   e009     BZ        0x17ea                                                                                          
0017d8   5166     MOVF      0x66,0x0,0x1                                                                                    
0017da   6e00     MOVWF     0x0,0x0                                                                                         
0017dc   6a01     CLRF      0x1,0x0                                                                                         
0017de   518d     MOVF      0x8d,0x0,0x1                                                                                    
0017e0   1800     XORWF     0x0,0x0,0x0                                                                                     
0017e2   e102     BNZ       0x17e8                                                                                          
0017e4   518e     MOVF      0x8e,0x0,0x1                                                                                    
0017e6   1801     XORWF     0x1,0x0,0x0                                                                                     
0017e8   e104     BNZ       0x17f2                                                                                          
                                           			{                                                                             C:\Embedded\Joystick\jmain.c
0017ea   0101     MOVLB     0x1            				StatoUnita = CAN_STATE_STOPPED;                                              C:\Embedded\Joystick\jmain.c
0017ec   0e04     MOVLW     0x4                                                                                             
0017ee   6ffb     MOVWF     0xfb,0x1                                                                                        
0017f0   d85b     RCALL     0x18a8         				device_disable();                                                            C:\Embedded\Joystick\jmain.c
                                           			}                                                                             C:\Embedded\Joystick\jmain.c
0017f2   d022     BRA       0x1838         		break;                                                                         C:\Embedded\Joystick\jmain.c
                                           		}                                                                              C:\Embedded\Joystick\jmain.c
                                           		case CAN_REQUEST_ENTER_PREOP:      // ENTER PREOPERATIONAL                     C:\Embedded\Joystick\jmain.c
                                           		{                                                                              C:\Embedded\Joystick\jmain.c
0017f4   5166     MOVF      0x66,0x0,0x1   			if (RXB_B [CAN_OPEN_IdNet].TXBD1 == 0 || RXB_B [CAN_OPEN_IdNet].TXBD1 == Id) // if all or me C:\Embedded\Joystick\jmain.c
0017f6   e009     BZ        0x180a                                                                                          
0017f8   5166     MOVF      0x66,0x0,0x1                                                                                    
0017fa   6e00     MOVWF     0x0,0x0                                                                                         
0017fc   6a01     CLRF      0x1,0x0                                                                                         
0017fe   518d     MOVF      0x8d,0x0,0x1                                                                                    
001800   1800     XORWF     0x0,0x0,0x0                                                                                     
001802   e102     BNZ       0x1808                                                                                          
001804   518e     MOVF      0x8e,0x0,0x1                                                                                    
001806   1801     XORWF     0x1,0x0,0x0                                                                                     
001808   e104     BNZ       0x1812                                                                                          
                                           			{                                                                             C:\Embedded\Joystick\jmain.c
00180a   0101     MOVLB     0x1            				StatoUnita = CAN_STATE_PREOPERATIONAL;                                       C:\Embedded\Joystick\jmain.c
00180c   0e7f     MOVLW     0x7f                                                                                            
00180e   6ffb     MOVWF     0xfb,0x1                                                                                        
001810   d84b     RCALL     0x18a8         				device_disable();                                                            C:\Embedded\Joystick\jmain.c
                                           			}                                                                             C:\Embedded\Joystick\jmain.c
001812   d012     BRA       0x1838         		break;                                                                         C:\Embedded\Joystick\jmain.c
                                           		}                                                                              C:\Embedded\Joystick\jmain.c
                                           		case CAN_REQUEST_RESET:      // RESET                                          C:\Embedded\Joystick\jmain.c
                                           		{                                                                              C:\Embedded\Joystick\jmain.c
001814   5166     MOVF      0x66,0x0,0x1   			if (RXB_B [CAN_OPEN_IdNet].TXBD1 == 0 || RXB_B [CAN_OPEN_IdNet].TXBD1 == Id) // if all or me C:\Embedded\Joystick\jmain.c
001816   e009     BZ        0x182a                                                                                          
001818   5166     MOVF      0x66,0x0,0x1                                                                                    
00181a   6e00     MOVWF     0x0,0x0                                                                                         
00181c   6a01     CLRF      0x1,0x0                                                                                         
00181e   518d     MOVF      0x8d,0x0,0x1                                                                                    
001820   1800     XORWF     0x0,0x0,0x0                                                                                     
001822   e102     BNZ       0x1828                                                                                          
001824   518e     MOVF      0x8e,0x0,0x1                                                                                    
001826   1801     XORWF     0x1,0x0,0x0                                                                                     
001828   e106     BNZ       0x1836                                                                                          
                                           			{                                                                             C:\Embedded\Joystick\jmain.c
00182a   0101     MOVLB     0x1            				StatoUnita = CAN_STATE_PREOPERATIONAL;                                       C:\Embedded\Joystick\jmain.c
00182c   0e7f     MOVLW     0x7f                                                                                            
00182e   6ffb     MOVWF     0xfb,0x1                                                                                        
001830   d83b     RCALL     0x18a8         				device_disable();                                                            C:\Embedded\Joystick\jmain.c
001832   ec4c     CALL      0x1e98,0x0     				init_cip ();                                                                 C:\Embedded\Joystick\jmain.c
001834   f00f                                                                                                               
                                           			}                                                                             C:\Embedded\Joystick\jmain.c
001836   d000     BRA       0x1838         		break;                                                                         C:\Embedded\Joystick\jmain.c
                                           		}                                                                              C:\Embedded\Joystick\jmain.c
                                           		default:;                                                                      C:\Embedded\Joystick\jmain.c
                                           		}                                                                              C:\Embedded\Joystick\jmain.c
                                              }                                                                             C:\Embedded\Joystick\jmain.c
                                                                                                                            C:\Embedded\Joystick\jmain.c
001838   0101     MOVLB     0x1              if (RXB_B [CAN_OPEN_PDO1].ST_B.IN)		// SEBASTIANO: qui il set point            C:\Embedded\Joystick\jmain.c
00183a   ad47     BTFSS     0x47,0x6,0x1                                                                                    
00183c   d002     BRA       0x1842                                                                                          
                                             {                                                                              C:\Embedded\Joystick\jmain.c
00183e   9d47     BCF       0x47,0x6,0x1       RXB_B [CAN_OPEN_PDO1].ST_B.IN = 0;                                           C:\Embedded\Joystick\jmain.c
                                           //	vpoc_set_point = RXB_B [CAN_OPEN_PDO1].TXBD1 + RXB_B [CAN_OPEN_PDO1].TXBD0 * 0x100;	//vpoc_set_point is an integer C:\Embedded\Joystick\jmain.c
                                           //	demand_value_generator();                                                     C:\Embedded\Joystick\jmain.c
                                                                                                                            C:\Embedded\Joystick\jmain.c
                                                                                                                            C:\Embedded\Joystick\jmain.c
                                           //	vpoc_actual_value = vpoc_set_point; //test only                               C:\Embedded\Joystick\jmain.c
001840   dd9d     RCALL     0x137c         	SendEmergency();                                                                C:\Embedded\Joystick\jmain.c
                                                                                                                            C:\Embedded\Joystick\jmain.c
                                           //    LEDs[0]                                                                    C:\Embedded\Joystick\jmain.c
                                           //    LEDs[1]                                                                    C:\Embedded\Joystick\jmain.c
                                           //    LEDs[2] = RXB_B [CAN_OPEN_PDO1].TXBD2;                                     C:\Embedded\Joystick\jmain.c
                                           //    LEDs[3] = RXB_B [CAN_OPEN_PDO1].TXBD3;                                     C:\Embedded\Joystick\jmain.c
                                           //    LEDs[4] = RXB_B [CAN_OPEN_PDO1].TXBD4;                                     C:\Embedded\Joystick\jmain.c
                                           //    LEDs[5] = RXB_B [CAN_OPEN_PDO1].TXBD5;	                                    C:\Embedded\Joystick\jmain.c
                                             }                                                                              C:\Embedded\Joystick\jmain.c
                                                                                                                            C:\Embedded\Joystick\jmain.c
001842   0101     MOVLB     0x1              if (RXB_B [CAN_OPEN_PDO2].ST_B.IN)		//blinking                                 C:\Embedded\Joystick\jmain.c
001844   bd53     BTFSC     0x53,0x6,0x1                                                                                    
                                             {                                                                              C:\Embedded\Joystick\jmain.c
001846   9d53     BCF       0x53,0x6,0x1       RXB_B [CAN_OPEN_PDO2].ST_B.IN = 0;                                           C:\Embedded\Joystick\jmain.c
                                           //    BlinkLEDs[0] = RXB_B [CAN_OPEN_PDO2].TXBD0;                                C:\Embedded\Joystick\jmain.c
                                           //    BlinkLEDs[1] = RXB_B [CAN_OPEN_PDO2].TXBD1;                                C:\Embedded\Joystick\jmain.c
                                           //    BlinkLEDs[2] = RXB_B [CAN_OPEN_PDO2].TXBD2;                                C:\Embedded\Joystick\jmain.c
                                           //    BlinkLEDs[3] = RXB_B [CAN_OPEN_PDO2].TXBD3;                                C:\Embedded\Joystick\jmain.c
                                           //    BlinkLEDs[4] = RXB_B [CAN_OPEN_PDO2].TXBD4;                                C:\Embedded\Joystick\jmain.c
                                           //    BlinkLEDs[5] = RXB_B [CAN_OPEN_PDO2].TXBD5;                                C:\Embedded\Joystick\jmain.c
                                           //	for (k=0	; k<6	; k++)					//new blink pattern, clear old one                  C:\Embedded\Joystick\jmain.c
                                           //		BlinkMask[k] =0;                                                             C:\Embedded\Joystick\jmain.c
                                             }                                                                              C:\Embedded\Joystick\jmain.c
                                                                                                                            C:\Embedded\Joystick\jmain.c
001848   ad5f     BTFSS     0x5f,0x6,0x1     if (RXB_B [CAN_OPEN_IdSdoRx].ST_B.IN)		//SDO                                   C:\Embedded\Joystick\jmain.c
00184a   d023     BRA       0x1892                                                                                          
                                             {                                                                              C:\Embedded\Joystick\jmain.c
00184c   9d5f     BCF       0x5f,0x6,0x1   		RXB_B [CAN_OPEN_IdSdoRx].ST_B.IN = 0;                                          C:\Embedded\Joystick\jmain.c
                                                                                                                            C:\Embedded\Joystick\jmain.c
00184e   0e05     MOVLW     0x5            		if (StatoUnita == CAN_STATE_OPERATIONAL)                                       C:\Embedded\Joystick\jmain.c
001850   0101     MOVLB     0x1                                                                                             
001852   5dfb     SUBWF     0xfb,0x0,0x1                                                                                    
001854   e11e     BNZ       0x1892                                                                                          
                                           		{                                                                              C:\Embedded\Joystick\jmain.c
001856   c154     MOVFF     0x154,0xfe6    			treat_SDO (RXB_B [CAN_OPEN_IdSdoRx]);	//pass the message to the dictionary procedures C:\Embedded\Joystick\jmain.c
001858   ffe6                                                                                                               
00185a   c155     MOVFF     0x155,0xfe6                                                                                     
00185c   ffe6                                                                                                               
00185e   c156     MOVFF     0x156,0xfe6                                                                                     
001860   ffe6                                                                                                               
001862   c157     MOVFF     0x157,0xfe6                                                                                     
001864   ffe6                                                                                                               
001866   c158     MOVFF     0x158,0xfe6                                                                                     
001868   ffe6                                                                                                               
00186a   c159     MOVFF     0x159,0xfe6                                                                                     
00186c   ffe6                                                                                                               
00186e   c15a     MOVFF     0x15a,0xfe6                                                                                     
001870   ffe6                                                                                                               
001872   c15b     MOVFF     0x15b,0xfe6                                                                                     
001874   ffe6                                                                                                               
001876   c15c     MOVFF     0x15c,0xfe6                                                                                     
001878   ffe6                                                                                                               
00187a   c15d     MOVFF     0x15d,0xfe6                                                                                     
00187c   ffe6                                                                                                               
00187e   c15e     MOVFF     0x15e,0xfe6                                                                                     
001880   ffe6                                                                                                               
001882   c15f     MOVFF     0x15f,0xfe6                                                                                     
001884   ffe6                                                                                                               
001886   ec25     CALL      0x44a,0x0                                                                                       
001888   f002                                                                                                               
00188a   6e00     MOVWF     0x0,0x0                                                                                         
00188c   0e0c     MOVLW     0xc                                                                                             
00188e   5ee1     SUBWF     0xe1,0x1,0x0                                                                                    
001890   5000     MOVF      0x0,0x0,0x0                                                                                     
                                           		}                                                                              C:\Embedded\Joystick\jmain.c
                                             }                                                                              C:\Embedded\Joystick\jmain.c
001892   0e03     MOVLW     0x3            }                                                                                C:\Embedded\Joystick\jmain.c
001894   5ce1     SUBWF     0xe1,0x0,0x0                                                                                    
001896   e202     BC        0x189c                                                                                          
001898   6ae1     CLRF      0xe1,0x0                                                                                        
00189a   52e5     MOVF      0xe5,0x1,0x0                                                                                    
00189c   6ee1     MOVWF     0xe1,0x0                                                                                        
00189e   52e5     MOVF      0xe5,0x1,0x0                                                                                    
0018a0   cfe7     MOVFF     0xfe7,0xfd9                                                                                     
0018a2   ffd9                                                                                                               
0018a4   0012     RETURN    0x0                                                                                             
                                                                                                                            C:\Embedded\Joystick\jmain.c
                                           //***************************************************//                          C:\Embedded\Joystick\jmain.c
                                           //Render the device available for operation                                      C:\Embedded\Joystick\jmain.c
                                           //***************************************************//                          C:\Embedded\Joystick\jmain.c
                                           void device_enable (void)                                                        C:\Embedded\Joystick\jmain.c
                                           {                                                                                C:\Embedded\Joystick\jmain.c
                                                                                                                            C:\Embedded\Joystick\jmain.c
                                           	//...other actions after device goes into operation....                         C:\Embedded\Joystick\jmain.c
                                                                                                                            C:\Embedded\Joystick\jmain.c
0018a6   0012     RETURN    0x0            }                                                                                C:\Embedded\Joystick\jmain.c
                                           //***************************************************//                          C:\Embedded\Joystick\jmain.c
                                           //Render the device available for operation                                      C:\Embedded\Joystick\jmain.c
                                           //***************************************************//                          C:\Embedded\Joystick\jmain.c
                                           void device_disable (void)                                                       C:\Embedded\Joystick\jmain.c
                                           {                                                                                C:\Embedded\Joystick\jmain.c
                                                                                                                            C:\Embedded\Joystick\jmain.c
                                           	//...other actions after device goes into operation....                         C:\Embedded\Joystick\jmain.c
                                                                                                                            C:\Embedded\Joystick\jmain.c
0018a8   0012     RETURN    0x0            }                                                                                C:\Embedded\Joystick\jmain.c
                                                                                                                            C:\Embedded\Joystick\jmain.c
                                           //***************************************************//                          C:\Embedded\Joystick\jmain.c
                                           //Send PDO with switch positions (with correct polarity)                         C:\Embedded\Joystick\jmain.c
                                           //***************************************************//                          C:\Embedded\Joystick\jmain.c
0018aa   cfd9     MOVFF     0xfd9,0xfe6    void sendDigitalInputs (void)                                                    C:\Embedded\Joystick\jmain.c
0018ac   ffe6                                                                                                               
0018ae   cfe1     MOVFF     0xfe1,0xfd9                                                                                     
0018b0   ffd9                                                                                                               
0018b2   0e04     MOVLW     0x4                                                                                             
0018b4   26e1     ADDWF     0xe1,0x1,0x0                                                                                    
                                           {                                                                                C:\Embedded\Joystick\jmain.c
                                           unsigned char s,t;                                                               C:\Embedded\Joystick\jmain.c
                                           typedef union Pot_val                                                            C:\Embedded\Joystick\jmain.c
                                           {                                                                                C:\Embedded\Joystick\jmain.c
                                           	struct                                                                          C:\Embedded\Joystick\jmain.c
                                           	{                                                                               C:\Embedded\Joystick\jmain.c
                                           	unsigned char pot_low;                                                          C:\Embedded\Joystick\jmain.c
                                           	unsigned char pot_high;                                                         C:\Embedded\Joystick\jmain.c
                                           	};                                                                              C:\Embedded\Joystick\jmain.c
                                           	int	pot_int;                                                                    C:\Embedded\Joystick\jmain.c
                                           }M_POT_VAL;                                                                      C:\Embedded\Joystick\jmain.c
                                                                                                                            C:\Embedded\Joystick\jmain.c
                                           M_POT_VAL pot_value;                                                             C:\Embedded\Joystick\jmain.c
                                                                                                                            C:\Embedded\Joystick\jmain.c
0018b6   0e01     MOVLW     0x1            	t = FALSE;                                                                      C:\Embedded\Joystick\jmain.c
0018b8   6adb     CLRF      0xdb,0x0                                                                                        
                                                                                                                            C:\Embedded\Joystick\jmain.c
0018ba   0101     MOVLB     0x1            	if ((next_PDO ==1) && (PDO_enable.SwitchBank1) )                                C:\Embedded\Joystick\jmain.c
0018bc   05b1     DECF      0xb1,0x0,0x1                                                                                    
0018be   e118     BNZ       0x18f0                                                                                          
0018c0   5184     MOVF      0x84,0x0,0x1                                                                                    
0018c2   0b01     ANDLW     0x1                                                                                             
0018c4   e015     BZ        0x18f0                                                                                          
                                           	{                                                                               C:\Embedded\Joystick\jmain.c
0018c6   c1a9     MOVFF     0x1a9,0x18b     		Id_p.Id_low  = z_sw_node;                                                     C:\Embedded\Joystick\jmain.c
0018c8   f18b                                                                                                               
0018ca   0e01     MOVLW     0x1            	 	TXB_B [CAN_OPEN_IdTx].TXBDLC  = 1; 		//unsingned char                         C:\Embedded\Joystick\jmain.c
0018cc   6f08     MOVWF     0x8,0x1                                                                                         
0018ce   0e03     MOVLW     0x3            		pot_value.pot_high = jIO_switch1_value;                                        C:\Embedded\Joystick\jmain.c
0018d0   c0f0     MOVFF     0xf0,0xfdb                                                                                      
0018d2   ffdb                                                                                                               
0018d4   cfdb     MOVFF     0xfdb,0xfe7    		pot_value.pot_high ^= uIOin1Polarity;                                          C:\Embedded\Joystick\jmain.c
0018d6   ffe7                                                                                                               
0018d8   0100     MOVLB     0x0                                                                                             
0018da   51f1     MOVF      0xf1,0x0,0x1                                                                                    
0018dc   1ae7     XORWF     0xe7,0x1,0x0                                                                                    
0018de   0e03     MOVLW     0x3                                                                                             
0018e0   cfe7     MOVFF     0xfe7,0xfdb                                                                                     
0018e2   ffdb                                                                                                               
0018e4   0e02     MOVLW     0x2            		pot_value.pot_low = 0;                                                         C:\Embedded\Joystick\jmain.c
0018e6   6adb     CLRF      0xdb,0x0                                                                                        
0018e8   52de     MOVF      0xde,0x1,0x0   		t = TRUE;                                                                      C:\Embedded\Joystick\jmain.c
0018ea   0e01     MOVLW     0x1                                                                                             
0018ec   6edd     MOVWF     0xdd,0x0                                                                                        
                                           	}                                                                               C:\Embedded\Joystick\jmain.c
0018ee   d047     BRA       0x197e         	else if (((next_PDO ==2) && PDO_enable.Pot1))                                   C:\Embedded\Joystick\jmain.c
0018f0   0e02     MOVLW     0x2                                                                                             
0018f2   5db1     SUBWF     0xb1,0x0,0x1                                                                                    
0018f4   e10f     BNZ       0x1914                                                                                          
0018f6   5184     MOVF      0x84,0x0,0x1                                                                                    
0018f8   0b02     ANDLW     0x2                                                                                             
0018fa   e00c     BZ        0x1914                                                                                          
                                           	{                                                                               C:\Embedded\Joystick\jmain.c
0018fc   c1aa     MOVFF     0x1aa,0x18b     		Id_p.Id_low  = z_node_1;                                                      C:\Embedded\Joystick\jmain.c
0018fe   f18b                                                                                                               
001900   0e02     MOVLW     0x2            		pot_value.pot_int = jIO_Potentiometer_1;                                       C:\Embedded\Joystick\jmain.c
001902   c0f7     MOVFF     0xf7,0xfdb                                                                                      
001904   ffdb                                                                                                               
001906   0e03     MOVLW     0x3                                                                                             
001908   c0f8     MOVFF     0xf8,0xfdb                                                                                      
00190a   ffdb                                                                                                               
00190c   52de     MOVF      0xde,0x1,0x0   		t = TRUE;                                                                      C:\Embedded\Joystick\jmain.c
00190e   0e01     MOVLW     0x1                                                                                             
001910   6edd     MOVWF     0xdd,0x0                                                                                        
                                           	}                                                                               C:\Embedded\Joystick\jmain.c
001912   d035     BRA       0x197e         	else if ((next_PDO ==3) && (PDO_enable.Pot2))                                   C:\Embedded\Joystick\jmain.c
001914   0e03     MOVLW     0x3                                                                                             
001916   5db1     SUBWF     0xb1,0x0,0x1                                                                                    
001918   e10f     BNZ       0x1938                                                                                          
00191a   5184     MOVF      0x84,0x0,0x1                                                                                    
00191c   0b04     ANDLW     0x4                                                                                             
00191e   e00c     BZ        0x1938                                                                                          
                                           	{                                                                               C:\Embedded\Joystick\jmain.c
001920   c1ab     MOVFF     0x1ab,0x18b     		Id_p.Id_low  = z_node_2;                                                      C:\Embedded\Joystick\jmain.c
001922   f18b                                                                                                               
001924   0e02     MOVLW     0x2            		pot_value.pot_int = jIO_Potentiometer_2;                                       C:\Embedded\Joystick\jmain.c
001926   c0f9     MOVFF     0xf9,0xfdb                                                                                      
001928   ffdb                                                                                                               
00192a   0e03     MOVLW     0x3                                                                                             
00192c   c0fa     MOVFF     0xfa,0xfdb                                                                                      
00192e   ffdb                                                                                                               
001930   52de     MOVF      0xde,0x1,0x0   		t = TRUE;                                                                      C:\Embedded\Joystick\jmain.c
001932   0e01     MOVLW     0x1                                                                                             
001934   6edd     MOVWF     0xdd,0x0                                                                                        
                                           	}                                                                               C:\Embedded\Joystick\jmain.c
001936   d023     BRA       0x197e         	else if ((next_PDO ==4) && (PDO_enable.Pot3))                                   C:\Embedded\Joystick\jmain.c
001938   0e04     MOVLW     0x4                                                                                             
00193a   5db1     SUBWF     0xb1,0x0,0x1                                                                                    
00193c   e10f     BNZ       0x195c                                                                                          
00193e   5184     MOVF      0x84,0x0,0x1                                                                                    
001940   0b08     ANDLW     0x8                                                                                             
001942   e00c     BZ        0x195c                                                                                          
                                           	{                                                                               C:\Embedded\Joystick\jmain.c
001944   c1ac     MOVFF     0x1ac,0x18b     		Id_p.Id_low  = z_node_3;                                                      C:\Embedded\Joystick\jmain.c
001946   f18b                                                                                                               
001948   0e02     MOVLW     0x2            		pot_value.pot_int = jIO_Potentiometer_3;                                       C:\Embedded\Joystick\jmain.c
00194a   c0fb     MOVFF     0xfb,0xfdb                                                                                      
00194c   ffdb                                                                                                               
00194e   0e03     MOVLW     0x3                                                                                             
001950   c0fc     MOVFF     0xfc,0xfdb                                                                                      
001952   ffdb                                                                                                               
001954   52de     MOVF      0xde,0x1,0x0   		t = TRUE;                                                                      C:\Embedded\Joystick\jmain.c
001956   0e01     MOVLW     0x1                                                                                             
001958   6edd     MOVWF     0xdd,0x0                                                                                        
                                           	}                                                                               C:\Embedded\Joystick\jmain.c
00195a   d011     BRA       0x197e         	else if ((next_PDO ==5) && (PDO_enable.Pot4))                                   C:\Embedded\Joystick\jmain.c
00195c   0e05     MOVLW     0x5                                                                                             
00195e   5db1     SUBWF     0xb1,0x0,0x1                                                                                    
001960   e10e     BNZ       0x197e                                                                                          
001962   5184     MOVF      0x84,0x0,0x1                                                                                    
001964   0b10     ANDLW     0x10                                                                                            
001966   e00b     BZ        0x197e                                                                                          
                                           	{                                                                               C:\Embedded\Joystick\jmain.c
001968   c1ad     MOVFF     0x1ad,0x18b     		Id_p.Id_low  = z_node_4;                                                      C:\Embedded\Joystick\jmain.c
00196a   f18b                                                                                                               
00196c   0e02     MOVLW     0x2            		pot_value.pot_int = jIO_Potentiometer_4;                                       C:\Embedded\Joystick\jmain.c
00196e   c0fd     MOVFF     0xfd,0xfdb                                                                                      
001970   ffdb                                                                                                               
001972   0e03     MOVLW     0x3                                                                                             
001974   c0fe     MOVFF     0xfe,0xfdb                                                                                      
001976   ffdb                                                                                                               
001978   52de     MOVF      0xde,0x1,0x0   		t = TRUE;                                                                      C:\Embedded\Joystick\jmain.c
00197a   0e01     MOVLW     0x1                                                                                             
00197c   6edd     MOVWF     0xdd,0x0                                                                                        
                                           	}                                                                               C:\Embedded\Joystick\jmain.c
                                                                                                                            C:\Embedded\Joystick\jmain.c
00197e   0e01     MOVLW     0x1            	if (t)                                                                          C:\Embedded\Joystick\jmain.c
001980   50db     MOVF      0xdb,0x0,0x0                                                                                    
001982   e01b     BZ        0x19ba                                                                                          
                                           	{                                                                               C:\Embedded\Joystick\jmain.c
001984   0101     MOVLB     0x1            	 	Id_p.Id_high = 2;								//use RPDO1 20X                                      C:\Embedded\Joystick\jmain.c
001986   0e02     MOVLW     0x2                                                                                             
001988   6f8c     MOVWF     0x8c,0x1                                                                                        
00198a   0e05     MOVLW     0x5            	 	Id_p.Idword  <<=5;                                                            C:\Embedded\Joystick\jmain.c
00198c   90d8     BCF       0xd8,0x0,0x0                                                                                    
00198e   378b     RLCF      0x8b,0x1,0x1                                                                                    
001990   378c     RLCF      0x8c,0x1,0x1                                                                                    
001992   06e8     DECF      0xe8,0x1,0x0                                                                                    
001994   e1fb     BNZ       0x198c                                                                                          
001996   c18c     MOVFF     0x18c,0x0      	 	TXB_B [CAN_OPEN_IdTx].TXBSIDH = (Id_p.Idword  >> 8) & 0xFF;                   C:\Embedded\Joystick\jmain.c
001998   f000                                                                                                               
00199a   6a01     CLRF      0x1,0x0                                                                                         
00199c   5000     MOVF      0x0,0x0,0x0                                                                                     
00199e   0101     MOVLB     0x1                                                                                             
0019a0   6f0a     MOVWF     0xa,0x1                                                                                         
0019a2   0ee0     MOVLW     0xe0           	 	TXB_B [CAN_OPEN_IdTx].TXBSIDL = Id_p.Idword & 0xE0;                           C:\Embedded\Joystick\jmain.c
0019a4   158b     ANDWF     0x8b,0x0,0x1                                                                                    
0019a6   6f09     MOVWF     0x9,0x1                                                                                         
0019a8   0e02     MOVLW     0x2            		TXB_B [CAN_OPEN_IdTx].TXBDLC  = 2; 				//signed int                            C:\Embedded\Joystick\jmain.c
0019aa   6f08     MOVWF     0x8,0x1                                                                                         
0019ac   0e03     MOVLW     0x3            		TXB_B [CAN_OPEN_IdTx].TXBD0 = pot_value.pot_high;                              C:\Embedded\Joystick\jmain.c
0019ae   cfdb     MOVFF     0xfdb,0x107                                                                                     
0019b0   f107                                                                                                               
0019b2   0e02     MOVLW     0x2            		TXB_B [CAN_OPEN_IdTx].TXBD1 = pot_value.pot_low;                               C:\Embedded\Joystick\jmain.c
0019b4   cfdb     MOVFF     0xfdb,0x106                                                                                     
0019b6   f106                                                                                                               
0019b8   8f0b     BSF       0xb,0x7,0x1    		TXB_B [CAN_OPEN_IdTx].ST_B.OUT = 1;                                            C:\Embedded\Joystick\jmain.c
                                           	}                                                                               C:\Embedded\Joystick\jmain.c
                                                                                                                            C:\Embedded\Joystick\jmain.c
0019ba   0101     MOVLB     0x1            	if ((++next_PDO) > z_number_of_nodes)                                           C:\Embedded\Joystick\jmain.c
0019bc   2bb1     INCF      0xb1,0x1,0x1                                                                                    
0019be   51a8     MOVF      0xa8,0x0,0x1                                                                                    
0019c0   80d8     BSF       0xd8,0x0,0x0                                                                                    
0019c2   55b1     SUBFWB    0xb1,0x0,0x1                                                                                    
0019c4   e202     BC        0x19ca                                                                                          
0019c6   0e01     MOVLW     0x1            		next_PDO = 1;                                                                  C:\Embedded\Joystick\jmain.c
0019c8   6fb1     MOVWF     0xb1,0x1                                                                                        
0019ca   0e04     MOVLW     0x4            }                                                                                C:\Embedded\Joystick\jmain.c
0019cc   5ce1     SUBWF     0xe1,0x0,0x0                                                                                    
0019ce   e202     BC        0x19d4                                                                                          
0019d0   6ae1     CLRF      0xe1,0x0                                                                                        
0019d2   52e5     MOVF      0xe5,0x1,0x0                                                                                    
0019d4   6ee1     MOVWF     0xe1,0x0                                                                                        
0019d6   52e5     MOVF      0xe5,0x1,0x0                                                                                    
0019d8   cfe7     MOVFF     0xfe7,0xfd9                                                                                     
0019da   ffd9                                                                                                               
0019dc   0012     RETURN    0x0                                                                                             
                                                                                                                            C:\Embedded\Joystick\jmain.c
                                           //***************************************************//                          C:\Embedded\Joystick\jmain.c
                                           // Start execution                                   //                          C:\Embedded\Joystick\jmain.c
                                           //***************************************************//                          C:\Embedded\Joystick\jmain.c
                                           void main ( )                                                                    C:\Embedded\Joystick\jmain.c
                                           {                                                                                C:\Embedded\Joystick\jmain.c
                                           // Use uCO_DevErrReg for error codes (accessible RO by SDOs)                     C:\Embedded\Joystick\jmain.c
                                                                                                                            C:\Embedded\Joystick\jmain.c
0019de   ec4c     CALL      0x1e98,0x0       init_cip ();                                                                   C:\Embedded\Joystick\jmain.c
0019e0   f00f                                                                                                               
                                                                                                                            C:\Embedded\Joystick\jmain.c
                                             // Main loop                                                                   C:\Embedded\Joystick\jmain.c
001a8e   d7a9     BRA       0x19e2           for (;;)                                                                       C:\Embedded\Joystick\jmain.c
                                             {                                                                              C:\Embedded\Joystick\jmain.c
0019e2   0004     CLRWDT                       _asm clrwdt _endasm                                                          C:\Embedded\Joystick\jmain.c
                                                                                                                            C:\Embedded\Joystick\jmain.c
0019e4   ec40     CALL      0x1080,0x0         CanOut();										// Send outstanding CAN messages if any                   C:\Embedded\Joystick\jmain.c
0019e6   f008                                                                                                               
0019e8   ded1     RCALL     0x178c             CanIn ();					    				// Unpack CAN messages if any                          C:\Embedded\Joystick\jmain.c
0019ea   ecd7     CALL      0x27ae,0x0     	Control();                                                                      C:\Embedded\Joystick\jmain.c
0019ec   f013                                                                                                               
                                                                                                                            C:\Embedded\Joystick\jmain.c
0019ee   0101     MOVLB     0x1            	if (z_master_initializing)                                                      C:\Embedded\Joystick\jmain.c
0019f0   51af     MOVF      0xaf,0x0,0x1                                                                                    
0019f2   e003     BZ        0x19fa                                                                                          
0019f4   ec15     CALL      0x102a,0x0     		initialize_slaves();                                                           C:\Embedded\Joystick\jmain.c
0019f6   f008                                                                                                               
0019f8   d005     BRA       0x1a04         	else if (next_PDO > 1)                                                          C:\Embedded\Joystick\jmain.c
0019fa   0101     MOVLB     0x1                                                                                             
0019fc   51b1     MOVF      0xb1,0x0,0x1                                                                                    
0019fe   0801     SUBLW     0x1                                                                                             
001a00   e201     BC        0x1a04                                                                                          
001a02   df53     RCALL     0x18aa         		sendDigitalInputs();                                                           C:\Embedded\Joystick\jmain.c
                                                                                                                            C:\Embedded\Joystick\jmain.c
001a04   0101     MOVLB     0x1            	if (T0_1ms == 1)							// 1 ms tasks                                            C:\Embedded\Joystick\jmain.c
001a06   05f0     DECF      0xf0,0x0,0x1                                                                                    
001a08   e142     BNZ       0x1a8e                                                                                          
                                           	{                                                                               C:\Embedded\Joystick\jmain.c
001a0a   0101     MOVLB     0x1            		T0_1ms = 0;	  						//Reset tmr0                                               C:\Embedded\Joystick\jmain.c
001a0c   6bf0     CLRF      0xf0,0x1                                                                                        
001a0e   ece0     CALL      0x27c0,0x0     		TimingControl ();                                                              C:\Embedded\Joystick\jmain.c
001a10   f013                                                                                                               
                                                                                                                            C:\Embedded\Joystick\jmain.c
001a12   0101     MOVLB     0x1            		if ((--heartbeat_count.count) == 0)                                            C:\Embedded\Joystick\jmain.c
001a14   0799     DECF      0x99,0x1,0x1                                                                                    
001a16   0e00     MOVLW     0x0                                                                                             
001a18   5b9a     SUBWFB    0x9a,0x1,0x1                                                                                    
001a1a   0101     MOVLB     0x1                                                                                             
001a1c   5199     MOVF      0x99,0x0,0x1                                                                                    
001a1e   119a     IORWF     0x9a,0x0,0x1                                                                                    
001a20   e107     BNZ       0x1a30                                                                                          
                                           		{                                                                              C:\Embedded\Joystick\jmain.c
001a22   dcba     RCALL     0x1398         			SendHeartbeat ();                                                             C:\Embedded\Joystick\jmain.c
001a24   c19b     MOVFF     0x19b,0x199    			heartbeat_count.count = heartbeat_rate.count;                                 C:\Embedded\Joystick\jmain.c
001a26   f199                                                                                                               
001a28   c19c     MOVFF     0x19c,0x19a                                                                                     
001a2a   f19a                                                                                                               
001a2c   ecfd     CALL      0xffa,0x0      			CheckBusError();                                                              C:\Embedded\Joystick\jmain.c
001a2e   f007                                                                                                               
                                           		}	                                                                             C:\Embedded\Joystick\jmain.c
                                                                                                                            C:\Embedded\Joystick\jmain.c
001a30   0e05     MOVLW     0x5            		if ((StatoUnita == CAN_STATE_OPERATIONAL) && !z_master_initializing)           C:\Embedded\Joystick\jmain.c
001a32   0101     MOVLB     0x1                                                                                             
001a34   5dfb     SUBWF     0xfb,0x0,0x1                                                                                    
001a36   e111     BNZ       0x1a5a                                                                                          
001a38   0101     MOVLB     0x1                                                                                             
001a3a   51af     MOVF      0xaf,0x0,0x1                                                                                    
001a3c   e10e     BNZ       0x1a5a                                                                                          
                                           		{                                                                              C:\Embedded\Joystick\jmain.c
001a3e   0101     MOVLB     0x1            			if ((--sendPDO_count) == 0)                                                   C:\Embedded\Joystick\jmain.c
001a40   079d     DECF      0x9d,0x1,0x1                                                                                    
001a42   0e00     MOVLW     0x0                                                                                             
001a44   5b9e     SUBWFB    0x9e,0x1,0x1                                                                                    
001a46   0101     MOVLB     0x1                                                                                             
001a48   519d     MOVF      0x9d,0x0,0x1                                                                                    
001a4a   119e     IORWF     0x9e,0x0,0x1                                                                                    
001a4c   e106     BNZ       0x1a5a                                                                                          
                                           			{                                                                             C:\Embedded\Joystick\jmain.c
001a4e   df2d     RCALL     0x18aa         				sendDigitalInputs();				// start the series of messages, switch and potentiometer values C:\Embedded\Joystick\jmain.c
001a50   0101     MOVLB     0x1            				sendPDO_count = PDO_COUNT;                                                   C:\Embedded\Joystick\jmain.c
001a52   0ea0     MOVLW     0xa0                                                                                            
001a54   6f9d     MOVWF     0x9d,0x1                                                                                        
001a56   0e0f     MOVLW     0xf                                                                                             
001a58   6f9e     MOVWF     0x9e,0x1                                                                                        
                                           			}                                                                             C:\Embedded\Joystick\jmain.c
                                           		}                                                                              C:\Embedded\Joystick\jmain.c
                                                                                                                            C:\Embedded\Joystick\jmain.c
001a5a   0101     MOVLB     0x1            		if (SDO_Process |= CAN_NOTHING)                                                C:\Embedded\Joystick\jmain.c
001a5c   5192     MOVF      0x92,0x0,0x1                                                                                    
001a5e   e017     BZ        0x1a8e                                                                                          
                                           		{                                                                              C:\Embedded\Joystick\jmain.c
001a60   0101     MOVLB     0x1            			if (--z_SDO_timer == 0)                                                       C:\Embedded\Joystick\jmain.c
001a62   07a2     DECF      0xa2,0x1,0x1                                                                                    
001a64   0e00     MOVLW     0x0                                                                                             
001a66   5ba3     SUBWFB    0xa3,0x1,0x1                                                                                    
001a68   0101     MOVLB     0x1                                                                                             
001a6a   51a2     MOVF      0xa2,0x0,0x1                                                                                    
001a6c   11a3     IORWF     0xa3,0x0,0x1                                                                                    
001a6e   e10f     BNZ       0x1a8e                                                                                          
                                           			{                                                                             C:\Embedded\Joystick\jmain.c
001a70   0101     MOVLB     0x1            				SDO_Process = CAN_NOTHING;                                                   C:\Embedded\Joystick\jmain.c
001a72   6b92     CLRF      0x92,0x1                                                                                        
001a74   0e02     MOVLW     0x2            				Send_SDO_Abort(multiplexor.index, multiplexor.sindex, E_SDO_TIME);           C:\Embedded\Joystick\jmain.c
001a76   6ee6     MOVWF     0xe6,0x0                                                                                        
001a78   c188     MOVFF     0x188,0xfe6                                                                                     
001a7a   ffe6                                                                                                               
001a7c   c186     MOVFF     0x186,0xfe6                                                                                     
001a7e   ffe6                                                                                                               
001a80   c187     MOVFF     0x187,0xfe6                                                                                     
001a82   ffe6                                                                                                               
001a84   dce5     RCALL     0x1450                                                                                          
001a86   52e5     MOVF      0xe5,0x1,0x0                                                                                    
001a88   52e5     MOVF      0xe5,0x1,0x0                                                                                    
001a8a   52e5     MOVF      0xe5,0x1,0x0                                                                                    
001a8c   52e5     MOVF      0xe5,0x1,0x0                                                                                    
                                           			}                                                                             C:\Embedded\Joystick\jmain.c
                                           		}                                                                              C:\Embedded\Joystick\jmain.c
                                           	}                                                                               C:\Embedded\Joystick\jmain.c
                                                                                                                            C:\Embedded\Joystick\jmain.c
                                             } //for                                                                        C:\Embedded\Joystick\jmain.c
                                                                                                                            C:\Embedded\Joystick\jmain.c
001a90   0012     RETURN    0x0            }                                                                                C:\Embedded\Joystick\jmain.c
                                                                                                                            C:\Embedded\Joystick\jmain.c
                                                                                                                            C:\Embedded\Joystick\jmain.c
                                                                                                                            C:\Embedded\Joystick\jmain.c
                                           //Cutomized device specific RO information and RW Error information//            C:\Embedded\Joystick\jProfile_data.c
                                           /*****************************************************************************   C:\Embedded\Joystick\jProfile_data.c
                                            *                                                                               C:\Embedded\Joystick\jProfile_data.c
                                            * Derived from Microchip CANopen Stack (Device Info)                            C:\Embedded\Joystick\jProfile_data.c
                                            * by                                                                            C:\Embedded\Joystick\jProfile_data.c
                                            * Gino Isla for Lambda Sistemi Milano                                           C:\Embedded\Joystick\jProfile_data.c
                                            *                                                                               C:\Embedded\Joystick\jProfile_data.c
                                            * This code contains dictionary object initialization                           C:\Embedded\Joystick\jProfile_data.c
                                            * values which are likely to change from device to device                       C:\Embedded\Joystick\jProfile_data.c
                                            *****************************************************************************/  C:\Embedded\Joystick\jProfile_data.c
                                                                                                                            C:\Embedded\Joystick\jProfile_data.c
                                           #include "japplication_data.h"                                                   C:\Embedded\Joystick\jProfile_data.c
                                           //see EEPROM_initializer.c and EEPROM_data.def for external EEPROM initialization strings C:\Embedded\Joystick\jProfile_data.c
                                                                                                                            C:\Embedded\Joystick\jProfile_data.c
                                           rom unsigned long rCO_DevType 						= 0x01070191;									//object 1000, 191h=Joystick, io func=7=dig.outputs, spec func=joystick C:\Embedded\Joystick\jProfile_data.c
                                           rom unsigned char rCO_DevName[] 					= "Joystick___CO_Italia    ";					//object 1008 C:\Embedded\Joystick\jProfile_data.c
                                           rom unsigned char rCO_DevHardwareVer[] 				= "V1.0";										//object 1009, doubly mapped as 6050 C:\Embedded\Joystick\jProfile_data.c
                                           rom unsigned char rCO_DevSoftwareVer[] 				= "V1.0";										//object 100A      C:\Embedded\Joystick\jProfile_data.c
                                           rom unsigned char rCO_DevIdentityIndx 				= 0x4;											//object 1018,0 number of sub-indecees in  C:\Embedded\Joystick\jProfile_data.c
                                           unsigned long rCO_DevVendorID 						= 0x12345678L;									//object 1018,1       C:\Embedded\Joystick\jProfile_data.c
                                           unsigned long rCO_DevProductCode 					= 0x87654321L;									//object 1018,2     C:\Embedded\Joystick\jProfile_data.c
                                           unsigned long rCO_DevRevNo 							= 0x12345678L;									//object 1018,3         C:\Embedded\Joystick\jProfile_data.c
                                           unsigned long rCO_DevSerialNo 						= 0x87654321L;									//object 1018,4, (not the same as 6052) C:\Embedded\Joystick\jProfile_data.c
                                                                                                                            C:\Embedded\Joystick\jProfile_data.c
                                           //Manufacturer specific data                                                     C:\Embedded\Joystick\jProfile_data.c
                                           //-----------------------------DS-401 / Apendix 1 Joystick PROFILE -------------- C:\Embedded\Joystick\jProfile_data.c
                                           unsigned char jIO_switch1_value						= 0;											// 0x6000,01 digital inputs 1 thru 8 (other digital inputs in 6000,02, etc.) C:\Embedded\Joystick\jProfile_data.c
                                           unsigned char uIOin1Polarity						= 0;											// 0x6002,01 polarity           C:\Embedded\Joystick\jProfile_data.c
                                           unsigned char uIOin1Filter							= 0xFF;											// 0x6003,01 filter - all enabled C:\Embedded\Joystick\jProfile_data.c
                                           unsigned char uIOin1IntEnable						= 0;											// 0x6005,01 GLOBAL interrupts disabled C:\Embedded\Joystick\jProfile_data.c
                                           unsigned char uIOin1IntChange						= 0;											// 0x6006,01 interrupt on change disABLED C:\Embedded\Joystick\jProfile_data.c
                                           unsigned char uIOin1IntRise							= 0;											// 0x6007 interrupt on positive edge disabled C:\Embedded\Joystick\jProfile_data.c
                                           unsigned char uIOin1IntFall							= 0;											// 0x6008 interrupt on negative edge disabled C:\Embedded\Joystick\jProfile_data.c
                                           unsigned int jIO_Potentiometer_1;																	// 0x6401,01, Analogue,16 bit, input C:\Embedded\Joystick\jProfile_data.c
                                           unsigned int jIO_Potentiometer_2;																	// 0x6401,02, Analogue,16 bit, input C:\Embedded\Joystick\jProfile_data.c
                                           unsigned int jIO_Potentiometer_3;																	// 0x6401,03, Analogue,16 bit, input C:\Embedded\Joystick\jProfile_data.c
                                           unsigned int jIO_Potentiometer_4;																	// 0x6401,04, Analogue,16 bit, input C:\Embedded\Joystick\jProfile_data.c
                                                                                                                            C:\Embedded\Joystick\jProfile_data.c
                                                                                                                            C:\Embedded\Joystick\jProfile_data.c
                                           //----------------------------- MANUIFACTURER SPECIFIC PROFILE DATA -------------- C:\Embedded\Joystick\jProfile_data.c
                                           ////The following data is banked because of space reasons                        C:\Embedded\Joystick\jProfile_data.c
                                           #pragma udata temp_data                                                          C:\Embedded\Joystick\jProfile_data.c
                                           unsigned char SDO_RX_HOLD_DATA[128];                                             C:\Embedded\Joystick\jProfile_data.c
                                           ////                                                                             C:\Embedded\Joystick\jProfile_data.c
                                           //#pragma udata ramp_up_data                                                     C:\Embedded\Joystick\jProfile_data.c
                                           //unsigned char mspd_ramp_up_buffer[128];															//object 0x2000, Ramp in Manuf. Specific Profile Data C:\Embedded\Joystick\jProfile_data.c
                                           //....                                                                           C:\Embedded\Joystick\jProfile_data.c
                                           //                                                                               C:\Embedded\Joystick\jProfile_data.c
                                                                                                                            C:\Embedded\Joystick\jProfile_data.c
                                                                                                                            C:\Embedded\Joystick\jProfile_data.c
                                                                                                                            C:\Embedded\Joystick\jProfile_data.c
                                                                                                                            C:\Embedded\Joystick\jProfile_data.c
                                                                                                                            C:\Embedded\Joystick\jProfile_data.c
                                                                                                                            C:\Embedded\Joystick\jProfile_data.c
                                                                                                                            C:\Embedded\Joystick\jProfile_data.c
                                                                                                                            C:\Embedded\Joystick\jProfile_data.c
                                                                                                                            C:\Embedded\Joystick\jProfile_data.c
                                                   LIST P=18F4580                                                           C:\MCC18\SRC\TRADIT~1\PROC\p18f4580.asm
                                                   LIST                                                                     C:\MCC18\SRC\TRADIT~1\PROC\p18f4580.asm
                                                   END                                                                      C:\MCC18\SRC\TRADIT~1\PROC\p18f4580.asm
                                           ;	RCS Header $Id: cmath18.asm,v 1.4.12.1 2006/01/13 04:11:25 nairnj Exp $        C:\MCC18\SRC\TRADIT~1\MATH\cmath18.asm
                                                                                                                            C:\MCC18\SRC\TRADIT~1\MATH\cmath18.asm
                                           ;       CMATH18 DATA DEFINITION FILE                                             C:\MCC18\SRC\TRADIT~1\MATH\cmath18.asm
                                                                                                                            C:\MCC18\SRC\TRADIT~1\MATH\cmath18.asm
                                           ;******************************************************************************* C:\MCC18\SRC\TRADIT~1\MATH\cmath18.asm
                                           ;   VARIABLE ALLOCATION - Core math library routines                             C:\MCC18\SRC\TRADIT~1\MATH\cmath18.asm
                                           ;******************************************************************************* C:\MCC18\SRC\TRADIT~1\MATH\cmath18.asm
                                                                                                                            C:\MCC18\SRC\TRADIT~1\MATH\cmath18.asm
                                           MATH_DATA      UDATA_ACS                                                         C:\MCC18\SRC\TRADIT~1\MATH\cmath18.asm
                                                                                                                            C:\MCC18\SRC\TRADIT~1\MATH\cmath18.asm
                                           SIGN		RES 1       ; save location for sign in MSB                                C:\MCC18\SRC\TRADIT~1\MATH\cmath18.asm
                                           __FPFLAGSbits                                                                    C:\MCC18\SRC\TRADIT~1\MATH\cmath18.asm
                                           __FPFLAGS		RES 1       ; floating point library exception flags                  C:\MCC18\SRC\TRADIT~1\MATH\cmath18.asm
                                                                                                                            C:\MCC18\SRC\TRADIT~1\MATH\cmath18.asm
                                                   GLOBAL  SIGN, __FPFLAGS, __FPFLAGSbits                                   C:\MCC18\SRC\TRADIT~1\MATH\cmath18.asm
                                           	                                                                                C:\MCC18\SRC\TRADIT~1\MATH\cmath18.asm
                                                   END                                                                      C:\MCC18\SRC\TRADIT~1\MATH\cmath18.asm
